	.file	"main.cpp"
	.text
.Ltext0:
	.section	.rodata
	.type	_ZStL19piecewise_construct, @object
	.size	_ZStL19piecewise_construct, 1
_ZStL19piecewise_construct:
	.zero	1
	.section	.text._ZStorSt13_Ios_OpenmodeS_,"axG",@progbits,_ZStorSt13_Ios_OpenmodeS_,comdat
	.weak	_ZStorSt13_Ios_OpenmodeS_
	.type	_ZStorSt13_Ios_OpenmodeS_, @function
_ZStorSt13_Ios_OpenmodeS_:
.LFB818:
	.file 1 "/usr/include/c++/4.8/bits/ios_base.h"
	.loc 1 120 0
	.cfi_startproc
	pushq	%rbp
	.cfi_def_cfa_offset 16
	.cfi_offset 6, -16
	movq	%rsp, %rbp
	.cfi_def_cfa_register 6
	movl	%edi, -4(%rbp)
	movl	%esi, -8(%rbp)
	.loc 1 120 0
	movl	-4(%rbp), %edx
	movl	-8(%rbp), %eax
	orl	%edx, %eax
	popq	%rbp
	.cfi_def_cfa 7, 8
	ret
	.cfi_endproc
.LFE818:
	.size	_ZStorSt13_Ios_OpenmodeS_, .-_ZStorSt13_Ios_OpenmodeS_
	.local	_ZStL8__ioinit
	.comm	_ZStL8__ioinit,1,1
	.section	.text._ZSt3cosf,"axG",@progbits,_ZSt3cosf,comdat
	.weak	_ZSt3cosf
	.type	_ZSt3cosf, @function
_ZSt3cosf:
.LFB1215:
	.file 2 "/usr/include/c++/4.8/cmath"
	.loc 2 204 0
	.cfi_startproc
	pushq	%rbp
	.cfi_def_cfa_offset 16
	.cfi_offset 6, -16
	movq	%rsp, %rbp
	.cfi_def_cfa_register 6
	subq	$16, %rsp
	movss	%xmm0, -4(%rbp)
	.loc 2 204 0
	movl	-4(%rbp), %eax
	movl	%eax, -8(%rbp)
	movss	-8(%rbp), %xmm0
	call	cosf
	movss	%xmm0, -8(%rbp)
	movl	-8(%rbp), %eax
	movl	%eax, -8(%rbp)
	movss	-8(%rbp), %xmm0
	leave
	.cfi_def_cfa 7, 8
	ret
	.cfi_endproc
.LFE1215:
	.size	_ZSt3cosf, .-_ZSt3cosf
	.section	.text._ZSt3sinf,"axG",@progbits,_ZSt3sinf,comdat
	.weak	_ZSt3sinf
	.type	_ZSt3sinf, @function
_ZSt3sinf:
.LFB1250:
	.loc 2 445 0
	.cfi_startproc
	pushq	%rbp
	.cfi_def_cfa_offset 16
	.cfi_offset 6, -16
	movq	%rsp, %rbp
	.cfi_def_cfa_register 6
	subq	$16, %rsp
	movss	%xmm0, -4(%rbp)
	.loc 2 445 0
	movl	-4(%rbp), %eax
	movl	%eax, -8(%rbp)
	movss	-8(%rbp), %xmm0
	call	sinf
	movss	%xmm0, -8(%rbp)
	movl	-8(%rbp), %eax
	movl	%eax, -8(%rbp)
	movss	-8(%rbp), %xmm0
	leave
	.cfi_def_cfa 7, 8
	ret
	.cfi_endproc
.LFE1250:
	.size	_ZSt3sinf, .-_ZSt3sinf
	.section	.text._ZSt4sqrtf,"axG",@progbits,_ZSt4sqrtf,comdat
	.weak	_ZSt4sqrtf
	.type	_ZSt4sqrtf, @function
_ZSt4sqrtf:
.LFB1256:
	.loc 2 483 0
	.cfi_startproc
	pushq	%rbp
	.cfi_def_cfa_offset 16
	.cfi_offset 6, -16
	movq	%rsp, %rbp
	.cfi_def_cfa_register 6
	subq	$16, %rsp
	movss	%xmm0, -4(%rbp)
	.loc 2 483 0
	sqrtss	-4(%rbp), %xmm0
	ucomiss	%xmm0, %xmm0
	jp	.L9
	ucomiss	%xmm0, %xmm0
	je	.L8
.L9:
	movl	-4(%rbp), %eax
	movl	%eax, -8(%rbp)
	movss	-8(%rbp), %xmm0
	call	sqrtf
.L8:
	movss	%xmm0, -8(%rbp)
	movl	-8(%rbp), %eax
	movl	%eax, -8(%rbp)
	movss	-8(%rbp), %xmm0
	leave
	.cfi_def_cfa 7, 8
	ret
	.cfi_endproc
.LFE1256:
	.size	_ZSt4sqrtf, .-_ZSt4sqrtf
	.section	.text._ZSt3tanf,"axG",@progbits,_ZSt3tanf,comdat
	.weak	_ZSt3tanf
	.type	_ZSt3tanf, @function
_ZSt3tanf:
.LFB1259:
	.loc 2 502 0
	.cfi_startproc
	pushq	%rbp
	.cfi_def_cfa_offset 16
	.cfi_offset 6, -16
	movq	%rsp, %rbp
	.cfi_def_cfa_register 6
	subq	$16, %rsp
	movss	%xmm0, -4(%rbp)
	.loc 2 502 0
	movl	-4(%rbp), %eax
	movl	%eax, -8(%rbp)
	movss	-8(%rbp), %xmm0
	call	tanf
	movss	%xmm0, -8(%rbp)
	movl	-8(%rbp), %eax
	movl	%eax, -8(%rbp)
	movss	-8(%rbp), %xmm0
	leave
	.cfi_def_cfa 7, 8
	ret
	.cfi_endproc
.LFE1259:
	.size	_ZSt3tanf, .-_ZSt3tanf
	.section	.text._ZNSt14numeric_limitsIfE7epsilonEv,"axG",@progbits,_ZNSt14numeric_limitsIfE7epsilonEv,comdat
	.weak	_ZNSt14numeric_limitsIfE7epsilonEv
	.type	_ZNSt14numeric_limitsIfE7epsilonEv, @function
_ZNSt14numeric_limitsIfE7epsilonEv:
.LFB1562:
	.file 3 "/usr/include/c++/4.8/limits"
	.loc 3 1580 0
	.cfi_startproc
	pushq	%rbp
	.cfi_def_cfa_offset 16
	.cfi_offset 6, -16
	movq	%rsp, %rbp
	.cfi_def_cfa_register 6
	.loc 3 1580 0
	movl	.LC0(%rip), %eax
	movl	%eax, -4(%rbp)
	movss	-4(%rbp), %xmm0
	popq	%rbp
	.cfi_def_cfa 7, 8
	ret
	.cfi_endproc
.LFE1562:
	.size	_ZNSt14numeric_limitsIfE7epsilonEv, .-_ZNSt14numeric_limitsIfE7epsilonEv
	.section	.text._ZN3glm11inversesqrtERKf,"axG",@progbits,_ZN3glm11inversesqrtERKf,comdat
	.weak	_ZN3glm11inversesqrtERKf
	.type	_ZN3glm11inversesqrtERKf, @function
_ZN3glm11inversesqrtERKf:
.LFB2968:
	.file 4 "/usr/include/glm/detail/func_exponential.inl"
	.loc 4 185 0
	.cfi_startproc
	pushq	%rbp
	.cfi_def_cfa_offset 16
	.cfi_offset 6, -16
	movq	%rsp, %rbp
	.cfi_def_cfa_register 6
	subq	$16, %rsp
	movq	%rdi, -8(%rbp)
	.loc 4 186 0
	movq	-8(%rbp), %rax
	movq	%rax, %rdi
	call	_ZN3glm4sqrtIfEET_RKS1_
	movss	.LC1(%rip), %xmm1
	divss	%xmm0, %xmm1
	movaps	%xmm1, %xmm0
	movss	%xmm0, -12(%rbp)
	movl	-12(%rbp), %eax
	.loc 4 187 0
	movl	%eax, -12(%rbp)
	movss	-12(%rbp), %xmm0
	leave
	.cfi_def_cfa 7, 8
	ret
	.cfi_endproc
.LFE2968:
	.size	_ZN3glm11inversesqrtERKf, .-_ZN3glm11inversesqrtERKf
	.text
	.globl	_Z16LoadFileToStringSs
	.type	_Z16LoadFileToStringSs, @function
_Z16LoadFileToStringSs:
.LFB3326:
	.file 5 "/home/joe/Github_Repos/CustomLibs/MISC/FileLoader.h"
	.loc 5 9 0
	.cfi_startproc
	.cfi_personality 0x3,__gxx_personality_v0
	.cfi_lsda 0x3,.LLSDA3326
	pushq	%rbp
	.cfi_def_cfa_offset 16
	.cfi_offset 6, -16
	movq	%rsp, %rbp
	.cfi_def_cfa_register 6
	pushq	%rbx
	subq	$920, %rsp
	.cfi_offset 3, -24
	movq	%rdi, -920(%rbp)
	movq	%rsi, -928(%rbp)
	.loc 5 9 0
	movq	%fs:40, %rax
	movq	%rax, -24(%rbp)
	xorl	%eax, %eax
.LBB2:
	.loc 5 10 0
	movq	-928(%rbp), %rcx
	leaq	-544(%rbp), %rax
	movl	$8, %edx
	movq	%rcx, %rsi
	movq	%rax, %rdi
.LEHB0:
	call	_ZNSt14basic_ifstreamIcSt11char_traitsIcEEC1ERKSsSt13_Ios_Openmode
.LEHE0:
	.loc 5 11 0
	movl	$8, %esi
	movl	$16, %edi
	call	_ZStorSt13_Ios_OpenmodeS_
	movl	%eax, %edx
	leaq	-912(%rbp), %rax
	movl	%edx, %esi
	movq	%rax, %rdi
.LEHB1:
	call	_ZNSt18basic_stringstreamIcSt11char_traitsIcESaIcEEC1ESt13_Ios_Openmode
.LEHE1:
	.loc 5 12 0
	leaq	-544(%rbp), %rax
	movq	%rax, %rdi
.LEHB2:
	call	_ZNKSt14basic_ifstreamIcSt11char_traitsIcEE5rdbufEv
	leaq	-912(%rbp), %rdx
	addq	$16, %rdx
	movq	%rax, %rsi
	movq	%rdx, %rdi
	call	_ZNSolsEPSt15basic_streambufIcSt11char_traitsIcEE
	.loc 5 13 0
	movq	-920(%rbp), %rax
	leaq	-912(%rbp), %rdx
	movq	%rdx, %rsi
	movq	%rax, %rdi
	call	_ZNKSt18basic_stringstreamIcSt11char_traitsIcESaIcEE3strEv
.LEHE2:
	.loc 5 14 0
	nop
	.loc 5 11 0
	leaq	-912(%rbp), %rax
	movq	%rax, %rdi
	call	_ZNSt18basic_stringstreamIcSt11char_traitsIcESaIcEED1Ev
	.loc 5 14 0
	leaq	-544(%rbp), %rax
	movq	%rax, %rdi
	call	_ZNSt14basic_ifstreamIcSt11char_traitsIcEED1Ev
.LBE2:
	.loc 5 15 0
	movq	-920(%rbp), %rax
	movq	-24(%rbp), %rcx
	xorq	%fs:40, %rcx
	je	.L21
	jmp	.L24
.L23:
	movq	%rax, %rbx
.LBB3:
	.loc 5 11 0
	leaq	-912(%rbp), %rax
	movq	%rax, %rdi
	call	_ZNSt18basic_stringstreamIcSt11char_traitsIcESaIcEED1Ev
	jmp	.L20
.L22:
	movq	%rax, %rbx
.L20:
	.loc 5 14 0
	leaq	-544(%rbp), %rax
	movq	%rax, %rdi
	call	_ZNSt14basic_ifstreamIcSt11char_traitsIcEED1Ev
	movq	%rbx, %rax
	movq	%rax, %rdi
.LEHB3:
	call	_Unwind_Resume
.LEHE3:
.L24:
.LBE3:
	.loc 5 15 0
	call	__stack_chk_fail
.L21:
	addq	$920, %rsp
	popq	%rbx
	popq	%rbp
	.cfi_def_cfa 7, 8
	ret
	.cfi_endproc
.LFE3326:
	.globl	__gxx_personality_v0
	.section	.gcc_except_table,"a",@progbits
.LLSDA3326:
	.byte	0xff
	.byte	0xff
	.byte	0x1
	.uleb128 .LLSDACSE3326-.LLSDACSB3326
.LLSDACSB3326:
	.uleb128 .LEHB0-.LFB3326
	.uleb128 .LEHE0-.LEHB0
	.uleb128 0
	.uleb128 0
	.uleb128 .LEHB1-.LFB3326
	.uleb128 .LEHE1-.LEHB1
	.uleb128 .L22-.LFB3326
	.uleb128 0
	.uleb128 .LEHB2-.LFB3326
	.uleb128 .LEHE2-.LEHB2
	.uleb128 .L23-.LFB3326
	.uleb128 0
	.uleb128 .LEHB3-.LFB3326
	.uleb128 .LEHE3-.LEHB3
	.uleb128 0
	.uleb128 0
.LLSDACSE3326:
	.text
	.size	_Z16LoadFileToStringSs, .-_Z16LoadFileToStringSs
	.globl	_Z5getchv
	.type	_Z5getchv, @function
_Z5getchv:
.LFB3327:
	.file 6 "/home/joe/Github_Repos/CustomLibs/MISC/conio.h"
	.loc 6 9 0
	.cfi_startproc
	pushq	%rbp
	.cfi_def_cfa_offset 16
	.cfi_offset 6, -16
	movq	%rsp, %rbp
	.cfi_def_cfa_register 6
	subq	$160, %rsp
	.loc 6 9 0
	movq	%fs:40, %rax
	movq	%rax, -8(%rbp)
	xorl	%eax, %eax
.LBB4:
	.loc 6 12 0
	leaq	-144(%rbp), %rax
	movq	%rax, %rsi
	movl	$0, %edi
	call	tcgetattr
	.loc 6 13 0
	movq	-144(%rbp), %rax
	movq	%rax, -80(%rbp)
	movq	-136(%rbp), %rax
	movq	%rax, -72(%rbp)
	movq	-128(%rbp), %rax
	movq	%rax, -64(%rbp)
	movq	-120(%rbp), %rax
	movq	%rax, -56(%rbp)
	movq	-112(%rbp), %rax
	movq	%rax, -48(%rbp)
	movq	-104(%rbp), %rax
	movq	%rax, -40(%rbp)
	movq	-96(%rbp), %rax
	movq	%rax, -32(%rbp)
	movl	-88(%rbp), %eax
	movl	%eax, -24(%rbp)
	.loc 6 14 0
	movl	-68(%rbp), %eax
	andl	$-11, %eax
	movl	%eax, -68(%rbp)
	.loc 6 15 0
	leaq	-80(%rbp), %rax
	movq	%rax, %rdx
	movl	$0, %esi
	movl	$0, %edi
	call	tcsetattr
	.loc 6 16 0
	call	getchar
	movl	%eax, -148(%rbp)
	.loc 6 17 0
	leaq	-144(%rbp), %rax
	movq	%rax, %rdx
	movl	$0, %esi
	movl	$0, %edi
	call	tcsetattr
	.loc 6 18 0
	movl	-148(%rbp), %eax
.LBE4:
	.loc 6 19 0
	movq	-8(%rbp), %rcx
	xorq	%fs:40, %rcx
	je	.L27
	call	__stack_chk_fail
.L27:
	leave
	.cfi_def_cfa 7, 8
	ret
	.cfi_endproc
.LFE3327:
	.size	_Z5getchv, .-_Z5getchv
	.globl	_Z6getchev
	.type	_Z6getchev, @function
_Z6getchev:
.LFB3328:
	.loc 6 22 0
	.cfi_startproc
	pushq	%rbp
	.cfi_def_cfa_offset 16
	.cfi_offset 6, -16
	movq	%rsp, %rbp
	.cfi_def_cfa_register 6
	subq	$160, %rsp
	.loc 6 22 0
	movq	%fs:40, %rax
	movq	%rax, -8(%rbp)
	xorl	%eax, %eax
.LBB5:
	.loc 6 25 0
	leaq	-144(%rbp), %rax
	movq	%rax, %rsi
	movl	$0, %edi
	call	tcgetattr
	.loc 6 26 0
	movq	-144(%rbp), %rax
	movq	%rax, -80(%rbp)
	movq	-136(%rbp), %rax
	movq	%rax, -72(%rbp)
	movq	-128(%rbp), %rax
	movq	%rax, -64(%rbp)
	movq	-120(%rbp), %rax
	movq	%rax, -56(%rbp)
	movq	-112(%rbp), %rax
	movq	%rax, -48(%rbp)
	movq	-104(%rbp), %rax
	movq	%rax, -40(%rbp)
	movq	-96(%rbp), %rax
	movq	%rax, -32(%rbp)
	movl	-88(%rbp), %eax
	movl	%eax, -24(%rbp)
	.loc 6 27 0
	movl	-68(%rbp), %eax
	andl	$-3, %eax
	movl	%eax, -68(%rbp)
	.loc 6 28 0
	leaq	-80(%rbp), %rax
	movq	%rax, %rdx
	movl	$0, %esi
	movl	$0, %edi
	call	tcsetattr
	.loc 6 29 0
	call	getchar
	movl	%eax, -148(%rbp)
	.loc 6 30 0
	leaq	-144(%rbp), %rax
	movq	%rax, %rdx
	movl	$0, %esi
	movl	$0, %edi
	call	tcsetattr
	.loc 6 31 0
	movl	-148(%rbp), %eax
.LBE5:
	.loc 6 32 0
	movq	-8(%rbp), %rcx
	xorq	%fs:40, %rcx
	je	.L30
	call	__stack_chk_fail
.L30:
	leave
	.cfi_def_cfa 7, 8
	ret
	.cfi_endproc
.LFE3328:
	.size	_Z6getchev, .-_Z6getchev
	.globl	_ZN15ShaderGenerator11__directoryE
	.bss
	.align 8
	.type	_ZN15ShaderGenerator11__directoryE, @object
	.size	_ZN15ShaderGenerator11__directoryE, 8
_ZN15ShaderGenerator11__directoryE:
	.zero	8
	.text
	.align 2
	.globl	_ZN15ShaderGenerator12setDirectoryESs
	.type	_ZN15ShaderGenerator12setDirectoryESs, @function
_ZN15ShaderGenerator12setDirectoryESs:
.LFB3329:
	.file 7 "/home/joe/Github_Repos/CustomLibs/GL_Utils/ShaderGenerator.h"
	.loc 7 45 0
	.cfi_startproc
	pushq	%rbp
	.cfi_def_cfa_offset 16
	.cfi_offset 6, -16
	movq	%rsp, %rbp
	.cfi_def_cfa_register 6
	subq	$16, %rsp
	movq	%rdi, -8(%rbp)
	.loc 7 46 0
	movq	-8(%rbp), %rax
	movq	%rax, %rsi
	movl	$_ZN15ShaderGenerator11__directoryE, %edi
	call	_ZNSsaSERKSs
	.loc 7 47 0
	leave
	.cfi_def_cfa 7, 8
	ret
	.cfi_endproc
.LFE3329:
	.size	_ZN15ShaderGenerator12setDirectoryESs, .-_ZN15ShaderGenerator12setDirectoryESs
	.section	.rodata
.LC2:
	.string	"Src: "
.LC3:
	.string	"\nType: VERTEX\n"
.LC4:
	.string	"\nType: FRAGMENT\n"
.LC5:
	.string	"shader compile error: "
.LC6:
	.string	"Error log:\n    "
.LC7:
	.string	"See INFO? y/n "
.LC8:
	.string	"OpenGL version: "
.LC9:
	.string	"GLSL version:   "
.LC10:
	.string	"GL vendor:      "
.LC11:
	.string	"GL renderer:    "
	.text
	.align 2
	.globl	_ZN15ShaderGenerator7compileESs10ShaderTypeb
	.type	_ZN15ShaderGenerator7compileESs10ShaderTypeb, @function
_ZN15ShaderGenerator7compileESs10ShaderTypeb:
.LFB3330:
	.loc 7 49 0
	.cfi_startproc
	.cfi_personality 0x3,__gxx_personality_v0
	.cfi_lsda 0x3,.LLSDA3330
	pushq	%rbp
	.cfi_def_cfa_offset 16
	.cfi_offset 6, -16
	movq	%rsp, %rbp
	.cfi_def_cfa_register 6
	pushq	%rbx
	subq	$72, %rsp
	.cfi_offset 3, -24
	movq	%rdi, -72(%rbp)
	movl	%esi, -76(%rbp)
	movl	%edx, %eax
	movb	%al, -80(%rbp)
.LBB6:
	.loc 7 50 0
	leaq	-32(%rbp), %rax
	movq	-72(%rbp), %rdx
	movl	$_ZN15ShaderGenerator11__directoryE, %esi
	movq	%rax, %rdi
.LEHB4:
	call	_ZStplIcSt11char_traitsIcESaIcEESbIT_T0_T1_ERKS6_S8_
.LEHE4:
	leaq	-32(%rbp), %rdx
	movq	-72(%rbp), %rax
	movq	%rdx, %rsi
	movq	%rax, %rdi
.LEHB5:
	call	_ZNSsaSEOSs
.LEHE5:
	.loc 7 50 0 is_stmt 0 discriminator 1
	leaq	-32(%rbp), %rax
	movq	%rax, %rdi
	call	_ZNSsD1Ev
	.loc 7 52 0 is_stmt 1 discriminator 1
	cmpb	$0, -80(%rbp)
	je	.L33
	.loc 7 53 0
	cmpl	$0, -76(%rbp)
	jne	.L34
	.loc 7 54 0
	movl	$.LC2, %esi
	movl	$_ZSt4cout, %edi
.LEHB6:
	call	_ZStlsISt11char_traitsIcEERSt13basic_ostreamIcT_ES5_PKc
	movq	-72(%rbp), %rdx
	movq	%rdx, %rsi
	movq	%rax, %rdi
	call	_ZStlsIcSt11char_traitsIcESaIcEERSt13basic_ostreamIT_T0_ES7_RKSbIS4_S5_T1_E
	movl	$.LC3, %esi
	movq	%rax, %rdi
	call	_ZStlsISt11char_traitsIcEERSt13basic_ostreamIcT_ES5_PKc
.L34:
	.loc 7 55 0
	cmpl	$1, -76(%rbp)
	jne	.L33
	.loc 7 56 0
	movl	$.LC2, %esi
	movl	$_ZSt4cout, %edi
	call	_ZStlsISt11char_traitsIcEERSt13basic_ostreamIcT_ES5_PKc
	movq	-72(%rbp), %rdx
	movq	%rdx, %rsi
	movq	%rax, %rdi
	call	_ZStlsIcSt11char_traitsIcESaIcEERSt13basic_ostreamIT_T0_ES7_RKSbIS4_S5_T1_E
	movl	$.LC4, %esi
	movq	%rax, %rdi
	call	_ZStlsISt11char_traitsIcEERSt13basic_ostreamIcT_ES5_PKc
.L33:
	.loc 7 61 0
	cmpl	$0, -76(%rbp)
	jne	.L35
	.loc 7 62 0
	movq	__glewCreateShader(%rip), %rax
	movl	$35633, %edi
	call	*%rax
	movl	%eax, -56(%rbp)
	jmp	.L36
.L35:
	.loc 7 64 0
	movq	__glewCreateShader(%rip), %rax
	movl	$35632, %edi
	call	*%rax
	movl	%eax, -56(%rbp)
.L36:
	.loc 7 66 0
	movq	-72(%rbp), %rdx
	leaq	-32(%rbp), %rax
	movq	%rdx, %rsi
	movq	%rax, %rdi
	call	_ZNSsC1ERKSs
.LEHE6:
	leaq	-48(%rbp), %rax
	leaq	-32(%rbp), %rdx
	movq	%rdx, %rsi
	movq	%rax, %rdi
.LEHB7:
	call	_Z16LoadFileToStringSs
.LEHE7:
	.loc 7 66 0 is_stmt 0 discriminator 2
	leaq	-32(%rbp), %rax
	movq	%rax, %rdi
	call	_ZNSsD1Ev
	.loc 7 68 0 is_stmt 1 discriminator 2
	leaq	-48(%rbp), %rax
	movq	%rax, %rdi
	call	_ZNKSs5c_strEv
	movq	%rax, -32(%rbp)
	.loc 7 70 0 discriminator 2
	movq	__glewShaderSource(%rip), %rax
	leaq	-32(%rbp), %rdx
	movl	-56(%rbp), %edi
	movl	$0, %ecx
	movl	$1, %esi
.LEHB8:
	call	*%rax
	.loc 7 71 0
	movq	__glewCompileShader(%rip), %rax
	movl	-56(%rbp), %edx
	movl	%edx, %edi
	call	*%rax
	.loc 7 74 0
	movl	$0, -64(%rbp)
	.loc 7 75 0
	movq	__glewGetShaderiv(%rip), %rax
	leaq	-64(%rbp), %rdx
	movl	-56(%rbp), %ecx
	movl	$35713, %esi
	movl	%ecx, %edi
	call	*%rax
.LBB7:
	.loc 7 77 0
	movl	-64(%rbp), %eax
	testl	%eax, %eax
	jne	.L37
.LBB8:
	.loc 7 78 0
	movl	$0, -60(%rbp)
	.loc 7 79 0
	movq	__glewGetShaderiv(%rip), %rax
	leaq	-60(%rbp), %rdx
	movl	-56(%rbp), %ecx
	movl	$35716, %esi
	movl	%ecx, %edi
	call	*%rax
	.loc 7 81 0
	movl	-60(%rbp), %eax
	cltq
	movq	%rax, %rdi
	call	_Znam
	movq	%rax, -24(%rbp)
	.loc 7 82 0
	movq	__glewGetShaderInfoLog(%rip), %rax
	movl	-60(%rbp), %esi
	movq	-24(%rbp), %rcx
	leaq	-60(%rbp), %rdx
	movl	-56(%rbp), %edi
	call	*%rax
	.loc 7 84 0
	movl	$.LC5, %esi
	movl	$_ZSt4cerr, %edi
	call	_ZStlsISt11char_traitsIcEERSt13basic_ostreamIcT_ES5_PKc
	movq	-72(%rbp), %rdx
	movq	%rdx, %rsi
	movq	%rax, %rdi
	call	_ZStlsIcSt11char_traitsIcESaIcEERSt13basic_ostreamIT_T0_ES7_RKSbIS4_S5_T1_E
	.loc 7 84 0 is_stmt 0 discriminator 1
	movl	$_ZSt4endlIcSt11char_traitsIcEERSt13basic_ostreamIT_T0_ES6_, %esi
	movq	%rax, %rdi
	call	_ZNSolsEPFRSoS_E
	.loc 7 85 0 is_stmt 1
	movl	$.LC6, %esi
	movl	$_ZSt4cerr, %edi
	call	_ZStlsISt11char_traitsIcEERSt13basic_ostreamIcT_ES5_PKc
	movq	-24(%rbp), %rdx
	movq	%rdx, %rsi
	movq	%rax, %rdi
	call	_ZStlsISt11char_traitsIcEERSt13basic_ostreamIcT_ES5_PKc
	.loc 7 85 0 is_stmt 0 discriminator 1
	movl	$_ZSt4endlIcSt11char_traitsIcEERSt13basic_ostreamIT_T0_ES6_, %esi
	movq	%rax, %rdi
	call	_ZNSolsEPFRSoS_E
	.loc 7 86 0 is_stmt 1
	movl	$.LC7, %esi
	movl	$_ZSt4cerr, %edi
	call	_ZStlsISt11char_traitsIcEERSt13basic_ostreamIcT_ES5_PKc
	.loc 7 88 0
	call	_Z5getchv
	movl	%eax, -52(%rbp)
	.loc 7 90 0
	cmpl	$121, -52(%rbp)
	jne	.L38
	.loc 7 91 0
	movl	$7938, %edi
	call	glGetString
	movq	%rax, %rbx
	movl	$_ZSt4endlIcSt11char_traitsIcEERSt13basic_ostreamIT_T0_ES6_, %esi
	movl	$_ZSt4cerr, %edi
	call	_ZNSolsEPFRSoS_E
	.loc 7 91 0 is_stmt 0 discriminator 1
	movl	$.LC8, %esi
	movq	%rax, %rdi
	call	_ZStlsISt11char_traitsIcEERSt13basic_ostreamIcT_ES5_PKc
	movq	%rbx, %rsi
	movq	%rax, %rdi
	call	_ZStlsISt11char_traitsIcEERSt13basic_ostreamIcT_ES5_PKh
	movl	$_ZSt4endlIcSt11char_traitsIcEERSt13basic_ostreamIT_T0_ES6_, %esi
	movq	%rax, %rdi
	call	_ZNSolsEPFRSoS_E
	.loc 7 92 0 is_stmt 1
	movl	$35724, %edi
	call	glGetString
	movq	%rax, %rbx
	movl	$.LC9, %esi
	movl	$_ZSt4cerr, %edi
	call	_ZStlsISt11char_traitsIcEERSt13basic_ostreamIcT_ES5_PKc
	.loc 7 92 0 is_stmt 0 discriminator 1
	movq	%rbx, %rsi
	movq	%rax, %rdi
	call	_ZStlsISt11char_traitsIcEERSt13basic_ostreamIcT_ES5_PKh
	movl	$_ZSt4endlIcSt11char_traitsIcEERSt13basic_ostreamIT_T0_ES6_, %esi
	movq	%rax, %rdi
	call	_ZNSolsEPFRSoS_E
	.loc 7 93 0 is_stmt 1
	movl	$7936, %edi
	call	glGetString
	movq	%rax, %rbx
	movl	$.LC10, %esi
	movl	$_ZSt4cerr, %edi
	call	_ZStlsISt11char_traitsIcEERSt13basic_ostreamIcT_ES5_PKc
	.loc 7 93 0 is_stmt 0 discriminator 1
	movq	%rbx, %rsi
	movq	%rax, %rdi
	call	_ZStlsISt11char_traitsIcEERSt13basic_ostreamIcT_ES5_PKh
	movl	$_ZSt4endlIcSt11char_traitsIcEERSt13basic_ostreamIT_T0_ES6_, %esi
	movq	%rax, %rdi
	call	_ZNSolsEPFRSoS_E
	.loc 7 94 0 is_stmt 1
	movl	$7937, %edi
	call	glGetString
	movq	%rax, %rbx
	movl	$.LC11, %esi
	movl	$_ZSt4cerr, %edi
	call	_ZStlsISt11char_traitsIcEERSt13basic_ostreamIcT_ES5_PKc
	.loc 7 94 0 is_stmt 0 discriminator 1
	movq	%rbx, %rsi
	movq	%rax, %rdi
	call	_ZStlsISt11char_traitsIcEERSt13basic_ostreamIcT_ES5_PKh
	movl	$_ZSt4endlIcSt11char_traitsIcEERSt13basic_ostreamIT_T0_ES6_, %esi
	movq	%rax, %rdi
	call	_ZNSolsEPFRSoS_E
	jmp	.L39
.L38:
	.loc 7 97 0 is_stmt 1
	movl	$_ZSt4endlIcSt11char_traitsIcEERSt13basic_ostreamIT_T0_ES6_, %esi
	movl	$_ZSt4cerr, %edi
	call	_ZNSolsEPFRSoS_E
.L39:
	.loc 7 100 0
	cmpq	$0, -24(%rbp)
	je	.L40
	.loc 7 100 0 is_stmt 0 discriminator 1
	movq	-24(%rbp), %rax
	movq	%rax, %rdi
	call	_ZdaPv
.L40:
	.loc 7 102 0 is_stmt 1
	call	glfwTerminate
.LEHE8:
	.loc 7 103 0
	movl	$-2, %edi
	call	exit
.L37:
.LBE8:
.LBE7:
	.loc 7 106 0
	movl	-56(%rbp), %ebx
	leaq	-48(%rbp), %rax
	movq	%rax, %rdi
	call	_ZNSsD1Ev
	movl	%ebx, %eax
	jmp	.L48
.L45:
	movq	%rax, %rbx
	.loc 7 50 0
	leaq	-32(%rbp), %rax
	movq	%rax, %rdi
	call	_ZNSsD1Ev
	movq	%rbx, %rax
	movq	%rax, %rdi
.LEHB9:
	call	_Unwind_Resume
.L46:
	movq	%rax, %rbx
	leaq	-32(%rbp), %rax
	movq	%rax, %rdi
	call	_ZNSsD1Ev
	movq	%rbx, %rax
	movq	%rax, %rdi
	call	_Unwind_Resume
.L47:
	movq	%rax, %rbx
	.loc 7 106 0
	leaq	-48(%rbp), %rax
	movq	%rax, %rdi
	call	_ZNSsD1Ev
	movq	%rbx, %rax
	movq	%rax, %rdi
	call	_Unwind_Resume
.LEHE9:
.L48:
.LBE6:
	.loc 7 107 0
	addq	$72, %rsp
	popq	%rbx
	popq	%rbp
	.cfi_def_cfa 7, 8
	ret
	.cfi_endproc
.LFE3330:
	.section	.gcc_except_table
.LLSDA3330:
	.byte	0xff
	.byte	0xff
	.byte	0x1
	.uleb128 .LLSDACSE3330-.LLSDACSB3330
.LLSDACSB3330:
	.uleb128 .LEHB4-.LFB3330
	.uleb128 .LEHE4-.LEHB4
	.uleb128 0
	.uleb128 0
	.uleb128 .LEHB5-.LFB3330
	.uleb128 .LEHE5-.LEHB5
	.uleb128 .L45-.LFB3330
	.uleb128 0
	.uleb128 .LEHB6-.LFB3330
	.uleb128 .LEHE6-.LEHB6
	.uleb128 0
	.uleb128 0
	.uleb128 .LEHB7-.LFB3330
	.uleb128 .LEHE7-.LEHB7
	.uleb128 .L46-.LFB3330
	.uleb128 0
	.uleb128 .LEHB8-.LFB3330
	.uleb128 .LEHE8-.LEHB8
	.uleb128 .L47-.LFB3330
	.uleb128 0
	.uleb128 .LEHB9-.LFB3330
	.uleb128 .LEHE9-.LEHB9
	.uleb128 0
	.uleb128 0
.LLSDACSE3330:
	.text
	.size	_ZN15ShaderGenerator7compileESs10ShaderTypeb, .-_ZN15ShaderGenerator7compileESs10ShaderTypeb
	.section	.rodata
.LC12:
	.string	"shader program link error"
	.text
	.align 2
	.globl	_ZN15ShaderGenerator4linkEjj
	.type	_ZN15ShaderGenerator4linkEjj, @function
_ZN15ShaderGenerator4linkEjj:
.LFB3331:
	.loc 7 109 0
	.cfi_startproc
	pushq	%rbp
	.cfi_def_cfa_offset 16
	.cfi_offset 6, -16
	movq	%rsp, %rbp
	.cfi_def_cfa_register 6
	subq	$48, %rsp
	movl	%edi, -36(%rbp)
	movl	%esi, -40(%rbp)
.LBB9:
	.loc 7 110 0
	movq	__glewCreateProgram(%rip), %rax
	call	*%rax
	movl	%eax, -12(%rbp)
	.loc 7 111 0
	movq	__glewAttachShader(%rip), %rax
	movl	-36(%rbp), %ecx
	movl	-12(%rbp), %edx
	movl	%ecx, %esi
	movl	%edx, %edi
	call	*%rax
	.loc 7 112 0
	movq	__glewAttachShader(%rip), %rax
	movl	-40(%rbp), %ecx
	movl	-12(%rbp), %edx
	movl	%ecx, %esi
	movl	%edx, %edi
	call	*%rax
	.loc 7 113 0
	movq	__glewLinkProgram(%rip), %rax
	movl	-12(%rbp), %edx
	movl	%edx, %edi
	call	*%rax
	.loc 7 116 0
	movl	$0, -20(%rbp)
	.loc 7 117 0
	movq	__glewGetProgramiv(%rip), %rax
	leaq	-20(%rbp), %rdx
	movl	-12(%rbp), %ecx
	movl	$35714, %esi
	movl	%ecx, %edi
	call	*%rax
.LBB10:
	.loc 7 119 0
	movl	-20(%rbp), %eax
	testl	%eax, %eax
	jne	.L50
.LBB11:
	.loc 7 120 0
	movl	$0, -16(%rbp)
	.loc 7 121 0
	movq	__glewGetShaderiv(%rip), %rax
	leaq	-16(%rbp), %rdx
	movl	-12(%rbp), %ecx
	movl	$35716, %esi
	movl	%ecx, %edi
	call	*%rax
	.loc 7 123 0
	movl	-16(%rbp), %eax
	cltq
	movq	%rax, %rdi
	call	_Znam
	movq	%rax, -8(%rbp)
	.loc 7 124 0
	movl	$.LC12, %esi
	movl	$_ZSt4cout, %edi
	call	_ZStlsISt11char_traitsIcEERSt13basic_ostreamIcT_ES5_PKc
	movl	$_ZSt4endlIcSt11char_traitsIcEERSt13basic_ostreamIT_T0_ES6_, %esi
	movq	%rax, %rdi
	call	_ZNSolsEPFRSoS_E
	.loc 7 125 0
	movq	-8(%rbp), %rax
	movq	%rax, %rsi
	movl	$_ZSt4cout, %edi
	call	_ZStlsISt11char_traitsIcEERSt13basic_ostreamIcT_ES5_PKc
	movl	$_ZSt4endlIcSt11char_traitsIcEERSt13basic_ostreamIT_T0_ES6_, %esi
	movq	%rax, %rdi
	call	_ZNSolsEPFRSoS_E
	.loc 7 126 0
	cmpq	$0, -8(%rbp)
	je	.L51
	.loc 7 126 0 is_stmt 0 discriminator 1
	movq	-8(%rbp), %rax
	movq	%rax, %rdi
	call	_ZdaPv
.L51:
	.loc 7 128 0 is_stmt 1
	call	glfwTerminate
	.loc 7 129 0
	movl	$-2, %edi
	call	exit
.L50:
.LBE11:
.LBE10:
	.loc 7 132 0
	movl	-12(%rbp), %eax
.LBE9:
	.loc 7 133 0
	leave
	.cfi_def_cfa 7, 8
	ret
	.cfi_endproc
.LFE3331:
	.size	_ZN15ShaderGenerator4linkEjj, .-_ZN15ShaderGenerator4linkEjj
	.align 2
	.globl	_ZN15ShaderGenerator13createProgramESsSs
	.type	_ZN15ShaderGenerator13createProgramESsSs, @function
_ZN15ShaderGenerator13createProgramESsSs:
.LFB3332:
	.loc 7 135 0
	.cfi_startproc
	.cfi_personality 0x3,__gxx_personality_v0
	.cfi_lsda 0x3,.LLSDA3332
	pushq	%rbp
	.cfi_def_cfa_offset 16
	.cfi_offset 6, -16
	movq	%rsp, %rbp
	.cfi_def_cfa_register 6
	pushq	%rbx
	subq	$56, %rsp
	.cfi_offset 3, -24
	movq	%rdi, -56(%rbp)
	movq	%rsi, -64(%rbp)
.LBB12:
	.loc 7 136 0
	movq	-56(%rbp), %rdx
	leaq	-32(%rbp), %rax
	movq	%rdx, %rsi
	movq	%rax, %rdi
.LEHB10:
	call	_ZNSsC1ERKSs
.LEHE10:
	leaq	-32(%rbp), %rax
	movl	$1, %edx
	movl	$0, %esi
	movq	%rax, %rdi
.LEHB11:
	call	_ZN15ShaderGenerator7compileESs10ShaderTypeb
.LEHE11:
	movl	%eax, -40(%rbp)
	leaq	-32(%rbp), %rax
	movq	%rax, %rdi
	call	_ZNSsD1Ev
	.loc 7 137 0
	movq	-64(%rbp), %rdx
	leaq	-32(%rbp), %rax
	movq	%rdx, %rsi
	movq	%rax, %rdi
.LEHB12:
	call	_ZNSsC1ERKSs
.LEHE12:
	leaq	-32(%rbp), %rax
	movl	$1, %edx
	movl	$1, %esi
	movq	%rax, %rdi
.LEHB13:
	call	_ZN15ShaderGenerator7compileESs10ShaderTypeb
.LEHE13:
	.loc 7 137 0 is_stmt 0 discriminator 1
	movl	%eax, -36(%rbp)
	leaq	-32(%rbp), %rax
	movq	%rax, %rdi
	call	_ZNSsD1Ev
	.loc 7 138 0 is_stmt 1 discriminator 1
	movl	-36(%rbp), %edx
	movl	-40(%rbp), %eax
	movl	%edx, %esi
	movl	%eax, %edi
.LEHB14:
	call	_ZN15ShaderGenerator4linkEjj
	jmp	.L59
.L57:
	movq	%rax, %rbx
	.loc 7 136 0
	leaq	-32(%rbp), %rax
	movq	%rax, %rdi
	call	_ZNSsD1Ev
	movq	%rbx, %rax
	movq	%rax, %rdi
	call	_Unwind_Resume
.L58:
	movq	%rax, %rbx
	.loc 7 137 0
	leaq	-32(%rbp), %rax
	movq	%rax, %rdi
	call	_ZNSsD1Ev
	movq	%rbx, %rax
	movq	%rax, %rdi
	call	_Unwind_Resume
.LEHE14:
.L59:
.LBE12:
	.loc 7 139 0
	addq	$56, %rsp
	popq	%rbx
	popq	%rbp
	.cfi_def_cfa 7, 8
	ret
	.cfi_endproc
.LFE3332:
	.section	.gcc_except_table
.LLSDA3332:
	.byte	0xff
	.byte	0xff
	.byte	0x1
	.uleb128 .LLSDACSE3332-.LLSDACSB3332
.LLSDACSB3332:
	.uleb128 .LEHB10-.LFB3332
	.uleb128 .LEHE10-.LEHB10
	.uleb128 0
	.uleb128 0
	.uleb128 .LEHB11-.LFB3332
	.uleb128 .LEHE11-.LEHB11
	.uleb128 .L57-.LFB3332
	.uleb128 0
	.uleb128 .LEHB12-.LFB3332
	.uleb128 .LEHE12-.LEHB12
	.uleb128 0
	.uleb128 0
	.uleb128 .LEHB13-.LFB3332
	.uleb128 .LEHE13-.LEHB13
	.uleb128 .L58-.LFB3332
	.uleb128 0
	.uleb128 .LEHB14-.LFB3332
	.uleb128 .LEHE14-.LEHB14
	.uleb128 0
	.uleb128 0
.LLSDACSE3332:
	.text
	.size	_ZN15ShaderGenerator13createProgramESsSs, .-_ZN15ShaderGenerator13createProgramESsSs
	.section	.text._ZN4Util6ShaderC2Ev,"axG",@progbits,_ZN4Util6ShaderC5Ev,comdat
	.align 2
	.weak	_ZN4Util6ShaderC2Ev
	.type	_ZN4Util6ShaderC2Ev, @function
_ZN4Util6ShaderC2Ev:
.LFB3334:
	.file 8 "/home/joe/Github_Repos/CustomLibs/GL_Utils/Shader.h"
	.loc 8 29 0
	.cfi_startproc
	pushq	%rbp
	.cfi_def_cfa_offset 16
	.cfi_offset 6, -16
	movq	%rsp, %rbp
	.cfi_def_cfa_register 6
	movq	%rdi, -8(%rbp)
	.loc 8 29 0
	popq	%rbp
	.cfi_def_cfa 7, 8
	ret
	.cfi_endproc
.LFE3334:
	.size	_ZN4Util6ShaderC2Ev, .-_ZN4Util6ShaderC2Ev
	.weak	_ZN4Util6ShaderC1Ev
	.set	_ZN4Util6ShaderC1Ev,_ZN4Util6ShaderC2Ev
	.section	.rodata
.LC13:
	.string	""
	.text
	.align 2
	.globl	_ZN4Util6ShaderC2ESsSs
	.type	_ZN4Util6ShaderC2ESsSs, @function
_ZN4Util6ShaderC2ESsSs:
.LFB3339:
	.loc 8 44 0
	.cfi_startproc
	.cfi_personality 0x3,__gxx_personality_v0
	.cfi_lsda 0x3,.LLSDA3339
	pushq	%rbp
	.cfi_def_cfa_offset 16
	.cfi_offset 6, -16
	movq	%rsp, %rbp
	.cfi_def_cfa_register 6
	pushq	%rbx
	subq	$72, %rsp
	.cfi_offset 3, -24
	movq	%rdi, -56(%rbp)
	movq	%rsi, -64(%rbp)
	movq	%rdx, -72(%rbp)
.LBB13:
	.loc 8 45 0
	leaq	-33(%rbp), %rax
	movq	%rax, %rdi
	call	_ZNSaIcEC1Ev
	leaq	-33(%rbp), %rdx
	leaq	-32(%rbp), %rax
	movl	$.LC13, %esi
	movq	%rax, %rdi
.LEHB15:
	call	_ZNSsC1EPKcRKSaIcE
.LEHE15:
	.loc 8 45 0 is_stmt 0 discriminator 1
	leaq	-32(%rbp), %rax
	movq	%rax, %rdi
.LEHB16:
	call	_ZN15ShaderGenerator12setDirectoryESs
.LEHE16:
	leaq	-32(%rbp), %rax
	movq	%rax, %rdi
	call	_ZNSsD1Ev
	leaq	-33(%rbp), %rax
	movq	%rax, %rdi
	call	_ZNSaIcED1Ev
	.loc 8 47 0 is_stmt 1 discriminator 1
	movq	-64(%rbp), %rdx
	leaq	-32(%rbp), %rax
	movq	%rdx, %rsi
	movq	%rax, %rdi
.LEHB17:
	call	_ZNSsC1ERKSs
.LEHE17:
	leaq	-32(%rbp), %rax
	movl	$1, %edx
	movl	$0, %esi
	movq	%rax, %rdi
.LEHB18:
	call	_ZN15ShaderGenerator7compileESs10ShaderTypeb
.LEHE18:
	movq	-56(%rbp), %rdx
	movl	%eax, 4(%rdx)
	leaq	-32(%rbp), %rax
	movq	%rax, %rdi
	call	_ZNSsD1Ev
	.loc 8 48 0 discriminator 1
	movq	-72(%rbp), %rdx
	leaq	-32(%rbp), %rax
	movq	%rdx, %rsi
	movq	%rax, %rdi
.LEHB19:
	call	_ZNSsC1ERKSs
.LEHE19:
	leaq	-32(%rbp), %rax
	movl	$1, %edx
	movl	$1, %esi
	movq	%rax, %rdi
.LEHB20:
	call	_ZN15ShaderGenerator7compileESs10ShaderTypeb
.LEHE20:
	movq	-56(%rbp), %rdx
	movl	%eax, 8(%rdx)
	leaq	-32(%rbp), %rax
	movq	%rax, %rdi
	call	_ZNSsD1Ev
	.loc 8 50 0 discriminator 1
	movq	-56(%rbp), %rax
	movl	8(%rax), %edx
	movq	-56(%rbp), %rax
	movl	4(%rax), %eax
	movl	%edx, %esi
	movl	%eax, %edi
.LEHB21:
	call	_ZN15ShaderGenerator4linkEjj
	movq	-56(%rbp), %rdx
	movl	%eax, (%rdx)
	jmp	.L70
.L67:
	movq	%rax, %rbx
	.loc 8 45 0
	leaq	-32(%rbp), %rax
	movq	%rax, %rdi
	call	_ZNSsD1Ev
	jmp	.L63
.L66:
	movq	%rax, %rbx
.L63:
	leaq	-33(%rbp), %rax
	movq	%rax, %rdi
	call	_ZNSaIcED1Ev
	movq	%rbx, %rax
	movq	%rax, %rdi
	call	_Unwind_Resume
.L68:
	movq	%rax, %rbx
	.loc 8 47 0
	leaq	-32(%rbp), %rax
	movq	%rax, %rdi
	call	_ZNSsD1Ev
	movq	%rbx, %rax
	movq	%rax, %rdi
	call	_Unwind_Resume
.L69:
	movq	%rax, %rbx
	.loc 8 48 0
	leaq	-32(%rbp), %rax
	movq	%rax, %rdi
	call	_ZNSsD1Ev
	movq	%rbx, %rax
	movq	%rax, %rdi
	call	_Unwind_Resume
.LEHE21:
.L70:
.LBE13:
	.loc 8 51 0
	addq	$72, %rsp
	popq	%rbx
	popq	%rbp
	.cfi_def_cfa 7, 8
	ret
	.cfi_endproc
.LFE3339:
	.section	.gcc_except_table
.LLSDA3339:
	.byte	0xff
	.byte	0xff
	.byte	0x1
	.uleb128 .LLSDACSE3339-.LLSDACSB3339
.LLSDACSB3339:
	.uleb128 .LEHB15-.LFB3339
	.uleb128 .LEHE15-.LEHB15
	.uleb128 .L66-.LFB3339
	.uleb128 0
	.uleb128 .LEHB16-.LFB3339
	.uleb128 .LEHE16-.LEHB16
	.uleb128 .L67-.LFB3339
	.uleb128 0
	.uleb128 .LEHB17-.LFB3339
	.uleb128 .LEHE17-.LEHB17
	.uleb128 0
	.uleb128 0
	.uleb128 .LEHB18-.LFB3339
	.uleb128 .LEHE18-.LEHB18
	.uleb128 .L68-.LFB3339
	.uleb128 0
	.uleb128 .LEHB19-.LFB3339
	.uleb128 .LEHE19-.LEHB19
	.uleb128 0
	.uleb128 0
	.uleb128 .LEHB20-.LFB3339
	.uleb128 .LEHE20-.LEHB20
	.uleb128 .L69-.LFB3339
	.uleb128 0
	.uleb128 .LEHB21-.LFB3339
	.uleb128 .LEHE21-.LEHB21
	.uleb128 0
	.uleb128 0
.LLSDACSE3339:
	.text
	.size	_ZN4Util6ShaderC2ESsSs, .-_ZN4Util6ShaderC2ESsSs
	.globl	_ZN4Util6ShaderC1ESsSs
	.set	_ZN4Util6ShaderC1ESsSs,_ZN4Util6ShaderC2ESsSs
	.align 2
	.globl	_ZN4Util6ShaderC2ESsSsSs
	.type	_ZN4Util6ShaderC2ESsSsSs, @function
_ZN4Util6ShaderC2ESsSsSs:
.LFB3342:
	.loc 8 53 0
	.cfi_startproc
	.cfi_personality 0x3,__gxx_personality_v0
	.cfi_lsda 0x3,.LLSDA3342
	pushq	%rbp
	.cfi_def_cfa_offset 16
	.cfi_offset 6, -16
	movq	%rsp, %rbp
	.cfi_def_cfa_register 6
	pushq	%rbx
	subq	$56, %rsp
	.cfi_offset 3, -24
	movq	%rdi, -40(%rbp)
	movq	%rsi, -48(%rbp)
	movq	%rdx, -56(%rbp)
	movq	%rcx, -64(%rbp)
.LBB14:
	.loc 8 54 0
	movq	-48(%rbp), %rdx
	leaq	-32(%rbp), %rax
	movq	%rdx, %rsi
	movq	%rax, %rdi
.LEHB22:
	call	_ZNSsC1ERKSs
.LEHE22:
	leaq	-32(%rbp), %rax
	movq	%rax, %rdi
.LEHB23:
	call	_ZN15ShaderGenerator12setDirectoryESs
.LEHE23:
	.loc 8 54 0 is_stmt 0 discriminator 1
	leaq	-32(%rbp), %rax
	movq	%rax, %rdi
	call	_ZNSsD1Ev
	.loc 8 56 0 is_stmt 1 discriminator 1
	movq	-56(%rbp), %rdx
	leaq	-32(%rbp), %rax
	movq	%rdx, %rsi
	movq	%rax, %rdi
.LEHB24:
	call	_ZNSsC1ERKSs
.LEHE24:
	leaq	-32(%rbp), %rax
	movl	$1, %edx
	movl	$0, %esi
	movq	%rax, %rdi
.LEHB25:
	call	_ZN15ShaderGenerator7compileESs10ShaderTypeb
.LEHE25:
	movq	-40(%rbp), %rdx
	movl	%eax, 4(%rdx)
	leaq	-32(%rbp), %rax
	movq	%rax, %rdi
	call	_ZNSsD1Ev
	.loc 8 57 0 discriminator 1
	movq	-64(%rbp), %rdx
	leaq	-32(%rbp), %rax
	movq	%rdx, %rsi
	movq	%rax, %rdi
.LEHB26:
	call	_ZNSsC1ERKSs
.LEHE26:
	leaq	-32(%rbp), %rax
	movl	$1, %edx
	movl	$1, %esi
	movq	%rax, %rdi
.LEHB27:
	call	_ZN15ShaderGenerator7compileESs10ShaderTypeb
.LEHE27:
	movq	-40(%rbp), %rdx
	movl	%eax, 8(%rdx)
	leaq	-32(%rbp), %rax
	movq	%rax, %rdi
	call	_ZNSsD1Ev
	.loc 8 59 0 discriminator 1
	movq	-40(%rbp), %rax
	movl	8(%rax), %edx
	movq	-40(%rbp), %rax
	movl	4(%rax), %eax
	movl	%edx, %esi
	movl	%eax, %edi
.LEHB28:
	call	_ZN15ShaderGenerator4linkEjj
	movq	-40(%rbp), %rdx
	movl	%eax, (%rdx)
	jmp	.L78
.L75:
	movq	%rax, %rbx
	.loc 8 54 0
	leaq	-32(%rbp), %rax
	movq	%rax, %rdi
	call	_ZNSsD1Ev
	movq	%rbx, %rax
	movq	%rax, %rdi
	call	_Unwind_Resume
.L76:
	movq	%rax, %rbx
	.loc 8 56 0
	leaq	-32(%rbp), %rax
	movq	%rax, %rdi
	call	_ZNSsD1Ev
	movq	%rbx, %rax
	movq	%rax, %rdi
	call	_Unwind_Resume
.L77:
	movq	%rax, %rbx
	.loc 8 57 0
	leaq	-32(%rbp), %rax
	movq	%rax, %rdi
	call	_ZNSsD1Ev
	movq	%rbx, %rax
	movq	%rax, %rdi
	call	_Unwind_Resume
.LEHE28:
.L78:
.LBE14:
	.loc 8 60 0
	addq	$56, %rsp
	popq	%rbx
	popq	%rbp
	.cfi_def_cfa 7, 8
	ret
	.cfi_endproc
.LFE3342:
	.section	.gcc_except_table
.LLSDA3342:
	.byte	0xff
	.byte	0xff
	.byte	0x1
	.uleb128 .LLSDACSE3342-.LLSDACSB3342
.LLSDACSB3342:
	.uleb128 .LEHB22-.LFB3342
	.uleb128 .LEHE22-.LEHB22
	.uleb128 0
	.uleb128 0
	.uleb128 .LEHB23-.LFB3342
	.uleb128 .LEHE23-.LEHB23
	.uleb128 .L75-.LFB3342
	.uleb128 0
	.uleb128 .LEHB24-.LFB3342
	.uleb128 .LEHE24-.LEHB24
	.uleb128 0
	.uleb128 0
	.uleb128 .LEHB25-.LFB3342
	.uleb128 .LEHE25-.LEHB25
	.uleb128 .L76-.LFB3342
	.uleb128 0
	.uleb128 .LEHB26-.LFB3342
	.uleb128 .LEHE26-.LEHB26
	.uleb128 0
	.uleb128 0
	.uleb128 .LEHB27-.LFB3342
	.uleb128 .LEHE27-.LEHB27
	.uleb128 .L77-.LFB3342
	.uleb128 0
	.uleb128 .LEHB28-.LFB3342
	.uleb128 .LEHE28-.LEHB28
	.uleb128 0
	.uleb128 0
.LLSDACSE3342:
	.text
	.size	_ZN4Util6ShaderC2ESsSsSs, .-_ZN4Util6ShaderC2ESsSsSs
	.globl	_ZN4Util6ShaderC1ESsSsSs
	.set	_ZN4Util6ShaderC1ESsSsSs,_ZN4Util6ShaderC2ESsSsSs
	.align 2
	.globl	_ZN4Util6Shader4bindEv
	.type	_ZN4Util6Shader4bindEv, @function
_ZN4Util6Shader4bindEv:
.LFB3344:
	.loc 8 62 0
	.cfi_startproc
	pushq	%rbp
	.cfi_def_cfa_offset 16
	.cfi_offset 6, -16
	movq	%rsp, %rbp
	.cfi_def_cfa_register 6
	subq	$16, %rsp
	movq	%rdi, -8(%rbp)
	.loc 8 63 0
	movq	__glewUseProgram(%rip), %rax
	movq	-8(%rbp), %rdx
	movl	(%rdx), %edx
	movl	%edx, %edi
	call	*%rax
	.loc 8 64 0
	leave
	.cfi_def_cfa 7, 8
	ret
	.cfi_endproc
.LFE3344:
	.size	_ZN4Util6Shader4bindEv, .-_ZN4Util6Shader4bindEv
	.align 2
	.globl	_ZN4Util6Shader18getUniformLocationESs
	.type	_ZN4Util6Shader18getUniformLocationESs, @function
_ZN4Util6Shader18getUniformLocationESs:
.LFB3345:
	.loc 8 66 0
	.cfi_startproc
	pushq	%rbp
	.cfi_def_cfa_offset 16
	.cfi_offset 6, -16
	movq	%rsp, %rbp
	.cfi_def_cfa_register 6
	pushq	%rbx
	subq	$24, %rsp
	.cfi_offset 3, -24
	movq	%rdi, -24(%rbp)
	movq	%rsi, -32(%rbp)
	.loc 8 67 0
	movq	__glewGetUniformLocation(%rip), %rbx
	movq	-32(%rbp), %rax
	movq	%rax, %rdi
	call	_ZNKSs5c_strEv
	movq	%rax, %rdx
	movq	-24(%rbp), %rax
	movl	(%rax), %eax
	movq	%rdx, %rsi
	movl	%eax, %edi
	call	*%rbx
	.loc 8 68 0
	addq	$24, %rsp
	popq	%rbx
	popq	%rbp
	.cfi_def_cfa 7, 8
	ret
	.cfi_endproc
.LFE3345:
	.size	_ZN4Util6Shader18getUniformLocationESs, .-_ZN4Util6Shader18getUniformLocationESs
	.globl	_Z15getRandomNumberv
	.type	_Z15getRandomNumberv, @function
_Z15getRandomNumberv:
.LFB3346:
	.file 9 "/home/joe/Github_Repos/CustomLibs/MISC/RandomNumber.h"
	.loc 9 8 0
	.cfi_startproc
	pushq	%rbp
	.cfi_def_cfa_offset 16
	.cfi_offset 6, -16
	movq	%rsp, %rbp
	.cfi_def_cfa_register 6
.LBB15:
	.loc 9 10 0
	movl	_ZZ15getRandomNumbervE1i(%rip), %eax
	testl	%eax, %eax
	jne	.L83
	.loc 9 11 0
	movl	$0, %edi
	call	time
	movl	%eax, %edi
	call	srand
	.loc 9 12 0
	movl	$1, _ZZ15getRandomNumbervE1i(%rip)
.L83:
	.loc 9 14 0
	call	rand
.LBE15:
	.loc 9 15 0
	popq	%rbp
	.cfi_def_cfa 7, 8
	ret
	.cfi_endproc
.LFE3346:
	.size	_Z15getRandomNumberv, .-_Z15getRandomNumberv
	.section	.rodata
.LC14:
	.string	"Failed to initialize GLFW3"
.LC15:
	.string	"GLFW3! "
.LC16:
	.string	"Failed to open GLFW window"
.LC17:
	.string	"WINDOW! "
.LC18:
	.string	"Failed to initialize GLEW"
.LC19:
	.string	"GLEW! "
.LC20:
	.string	"GO!"
	.text
	.globl	_Z9GLFW_InitiiSsiih
	.type	_Z9GLFW_InitiiSsiih, @function
_Z9GLFW_InitiiSsiih:
.LFB3347:
	.file 10 "/home/joe/Github_Repos/CustomLibs/GL_Utils/InitGlfw.h"
	.loc 10 21 0
	.cfi_startproc
	pushq	%rbp
	.cfi_def_cfa_offset 16
	.cfi_offset 6, -16
	movq	%rsp, %rbp
	.cfi_def_cfa_register 6
	subq	$48, %rsp
	movl	%edi, -20(%rbp)
	movl	%esi, -24(%rbp)
	movq	%rdx, -32(%rbp)
	movl	%ecx, -36(%rbp)
	movl	%r8d, -40(%rbp)
	movl	%r9d, %eax
	movb	%al, -44(%rbp)
.LBB16:
	.loc 10 22 0
	call	glfwInit
	testl	%eax, %eax
	sete	%al
	testb	%al, %al
	je	.L86
	.loc 10 23 0
	movl	$.LC14, %esi
	movl	$_ZSt4cerr, %edi
	call	_ZStlsISt11char_traitsIcEERSt13basic_ostreamIcT_ES5_PKc
	movl	$_ZSt4endlIcSt11char_traitsIcEERSt13basic_ostreamIT_T0_ES6_, %esi
	movq	%rax, %rdi
	call	_ZNSolsEPFRSoS_E
	.loc 10 24 0
	movl	$-1, %edi
	call	exit
.L86:
	.loc 10 26 0
	movl	$.LC15, %esi
	movl	$_ZSt4cout, %edi
	call	_ZStlsISt11char_traitsIcEERSt13basic_ostreamIcT_ES5_PKc
	.loc 10 29 0
	movl	$4, %esi
	movl	$135181, %edi
	call	glfwWindowHint
	.loc 10 30 0
	movl	-36(%rbp), %eax
	movl	%eax, %esi
	movl	$139266, %edi
	call	glfwWindowHint
	.loc 10 31 0
	movl	-40(%rbp), %eax
	movl	%eax, %esi
	movl	$139267, %edi
	call	glfwWindowHint
	.loc 10 32 0
	movzbl	-44(%rbp), %eax
	movl	%eax, %esi
	movl	$139270, %edi
	call	glfwWindowHint
	.loc 10 33 0
	movl	$204801, %esi
	movl	$139272, %edi
	call	glfwWindowHint
	.loc 10 35 0
	movq	-32(%rbp), %rax
	movq	%rax, %rdi
	call	_ZNKSs5c_strEv
	movq	%rax, %rdx
	movl	-24(%rbp), %esi
	movl	-20(%rbp), %eax
	movl	$0, %r8d
	movl	$0, %ecx
	movl	%eax, %edi
	call	glfwCreateWindow
	movq	%rax, -8(%rbp)
	.loc 10 37 0
	cmpq	$0, -8(%rbp)
	jne	.L87
	.loc 10 38 0
	movl	$.LC16, %esi
	movl	$_ZSt4cerr, %edi
	call	_ZStlsISt11char_traitsIcEERSt13basic_ostreamIcT_ES5_PKc
	movl	$_ZSt4endlIcSt11char_traitsIcEERSt13basic_ostreamIT_T0_ES6_, %esi
	movq	%rax, %rdi
	call	_ZNSolsEPFRSoS_E
	.loc 10 39 0
	call	glfwTerminate
	.loc 10 40 0
	movl	$-1, %edi
	call	exit
.L87:
	.loc 10 42 0
	movl	$.LC17, %esi
	movl	$_ZSt4cout, %edi
	call	_ZStlsISt11char_traitsIcEERSt13basic_ostreamIcT_ES5_PKc
	.loc 10 45 0
	movq	-8(%rbp), %rax
	movq	%rax, %rdi
	call	glfwMakeContextCurrent
	.loc 10 46 0
	movb	$1, glewExperimental(%rip)
	.loc 10 48 0
	call	glewInit
	testl	%eax, %eax
	setne	%al
	testb	%al, %al
	je	.L88
	.loc 10 49 0
	movl	$.LC18, %esi
	movl	$_ZSt4cerr, %edi
	call	_ZStlsISt11char_traitsIcEERSt13basic_ostreamIcT_ES5_PKc
	movl	$_ZSt4endlIcSt11char_traitsIcEERSt13basic_ostreamIT_T0_ES6_, %esi
	movq	%rax, %rdi
	call	_ZNSolsEPFRSoS_E
	.loc 10 50 0
	movl	$-1, %edi
	call	exit
.L88:
	.loc 10 52 0
	movl	$.LC19, %esi
	movl	$_ZSt4cout, %edi
	call	_ZStlsISt11char_traitsIcEERSt13basic_ostreamIcT_ES5_PKc
	.loc 10 55 0
	movl	$.LC20, %esi
	movl	$_ZSt4cout, %edi
	call	_ZStlsISt11char_traitsIcEERSt13basic_ostreamIcT_ES5_PKc
	movl	$_ZSt4endlIcSt11char_traitsIcEERSt13basic_ostreamIT_T0_ES6_, %esi
	movq	%rax, %rdi
	call	_ZNSolsEPFRSoS_E
	.loc 10 57 0
	movq	-8(%rbp), %rax
	movl	$1, %edx
	movl	$208898, %esi
	movq	%rax, %rdi
	call	glfwSetInputMode
	.loc 10 59 0
	movq	-8(%rbp), %rax
.LBE16:
	.loc 10 60 0
	leave
	.cfi_def_cfa 7, 8
	ret
	.cfi_endproc
.LFE3347:
	.size	_Z9GLFW_InitiiSsiih, .-_Z9GLFW_InitiiSsiih
	.globl	_Z9randColorv
	.type	_Z9randColorv, @function
_Z9randColorv:
.LFB3348:
	.loc 10 63 0
	.cfi_startproc
	pushq	%rbp
	.cfi_def_cfa_offset 16
	.cfi_offset 6, -16
	movq	%rsp, %rbp
	.cfi_def_cfa_register 6
	subq	$32, %rsp
.LBB17:
	.loc 10 64 0
	call	_Z15getRandomNumberv
	movl	%eax, -8(%rbp)
	.loc 10 65 0
	movl	-8(%rbp), %ecx
	movl	$1098413215, %edx
	movl	%ecx, %eax
	imull	%edx
	sarl	$8, %edx
	movl	%ecx, %eax
	sarl	$31, %eax
	subl	%eax, %edx
	movl	%edx, %eax
	imull	$1001, %eax, %eax
	subl	%eax, %ecx
	movl	%ecx, %eax
	movl	%eax, -8(%rbp)
	.loc 10 66 0
	cvtsi2ss	-8(%rbp), %xmm0
	movss	%xmm0, -4(%rbp)
	.loc 10 67 0
	movss	-4(%rbp), %xmm0
	movss	.LC21(%rip), %xmm1
	divss	%xmm1, %xmm0
	movss	%xmm0, -20(%rbp)
	movl	-20(%rbp), %eax
.LBE17:
	.loc 10 68 0
	movl	%eax, -20(%rbp)
	movss	-20(%rbp), %xmm0
	leave
	.cfi_def_cfa 7, 8
	ret
	.cfi_endproc
.LFE3348:
	.size	_Z9randColorv, .-_Z9randColorv
	.globl	_ZN13TextureLoader8__initedE
	.bss
	.type	_ZN13TextureLoader8__initedE, @object
	.size	_ZN13TextureLoader8__initedE, 1
_ZN13TextureLoader8__initedE:
	.zero	1
	.globl	_ZN13TextureLoader16__texture_handleE
	.align 4
	.type	_ZN13TextureLoader16__texture_handleE, @object
	.size	_ZN13TextureLoader16__texture_handleE, 4
_ZN13TextureLoader16__texture_handleE:
	.zero	4
	.section	.rodata
	.align 8
.LC22:
	.string	"Image conversion failed: error("
.LC23:
	.string	") "
.LC24:
	.string	"Image load failed: error("
	.text
	.align 2
	.globl	_ZN13TextureLoader4loadESs
	.type	_ZN13TextureLoader4loadESs, @function
_ZN13TextureLoader4loadESs:
.LFB3349:
	.file 11 "/home/joe/Github_Repos/CustomLibs/GL_Utils/TextureLoader.h"
	.loc 11 34 0
	.cfi_startproc
	pushq	%rbp
	.cfi_def_cfa_offset 16
	.cfi_offset 6, -16
	movq	%rsp, %rbp
	.cfi_def_cfa_register 6
	pushq	%r14
	pushq	%r13
	pushq	%r12
	pushq	%rbx
	addq	$-128, %rsp
	.cfi_offset 14, -24
	.cfi_offset 13, -32
	.cfi_offset 12, -40
	.cfi_offset 3, -48
	movq	%rdi, -136(%rbp)
.LBB18:
	.loc 11 44 0
	leaq	-124(%rbp), %rax
	movq	%rax, %rsi
	movl	$1, %edi
	call	ilGenImages
	.loc 11 45 0
	movl	-124(%rbp), %eax
	movl	%eax, %edi
	call	ilBindImage
	.loc 11 46 0
	movq	-136(%rbp), %rax
	movq	%rax, %rdi
	call	_ZNKSs5c_strEv
	movq	%rax, %rdi
	call	ilLoadImage
	movb	%al, -125(%rbp)
.LBB19:
	.loc 11 48 0
	cmpb	$0, -125(%rbp)
	je	.L93
.LBB20:
	.loc 11 50 0
	leaq	-112(%rbp), %rax
	movq	%rax, %rdi
	call	iluGetImageInfo
	.loc 11 52 0
	movl	-68(%rbp), %eax
	cmpl	$1538, %eax
	jne	.L94
	.loc 11 53 0
	call	iluFlipImage
.L94:
	.loc 11 55 0
	movl	$5121, %esi
	movl	$6407, %edi
	call	ilConvertImage
	movb	%al, -125(%rbp)
.LBB21:
	.loc 11 57 0
	cmpb	$0, -125(%rbp)
	jne	.L95
.LBB22:
	.loc 11 58 0
	call	ilGetError
	movl	%eax, -120(%rbp)
	.loc 11 59 0
	movl	-120(%rbp), %eax
	movl	%eax, %edi
	call	iluErrorString
	movq	%rax, %rbx
	movl	$.LC22, %esi
	movl	$_ZSt4cout, %edi
	call	_ZStlsISt11char_traitsIcEERSt13basic_ostreamIcT_ES5_PKc
	movl	-120(%rbp), %edx
	movl	%edx, %esi
	movq	%rax, %rdi
	call	_ZNSolsEj
	movl	$.LC23, %esi
	movq	%rax, %rdi
	call	_ZStlsISt11char_traitsIcEERSt13basic_ostreamIcT_ES5_PKc
	movq	%rbx, %rsi
	movq	%rax, %rdi
	call	_ZStlsISt11char_traitsIcEERSt13basic_ostreamIcT_ES5_PKc
	movl	$_ZSt4endlIcSt11char_traitsIcEERSt13basic_ostreamIT_T0_ES6_, %esi
	movq	%rax, %rdi
	call	_ZNSolsEPFRSoS_E
	.loc 11 60 0
	movl	$-1, %edi
	call	exit
.L95:
.LBE22:
.LBE21:
	.loc 11 63 0
	movl	$_ZN13TextureLoader16__texture_handleE, %esi
	movl	$1, %edi
	call	glGenTextures
	.loc 11 64 0
	movl	_ZN13TextureLoader16__texture_handleE(%rip), %eax
	movl	%eax, %esi
	movl	$3553, %edi
	call	glBindTexture
	.loc 11 67 0
	movl	$10496, %edx
	movl	$10242, %esi
	movl	$3553, %edi
	call	glTexParameteri
	.loc 11 68 0
	movl	$10496, %edx
	movl	$10243, %esi
	movl	$3553, %edi
	call	glTexParameteri
	.loc 11 71 0
	movl	$9729, %edx
	movl	$10240, %esi
	movl	$3553, %edi
	call	glTexParameteri
	.loc 11 72 0
	movl	$9729, %edx
	movl	$10241, %esi
	movl	$3553, %edi
	call	glTexParameteri
	.loc 11 83 0
	call	ilGetData
	movq	%rax, %rbx
	.loc 11 81 0
	movl	$3562, %edi
	call	ilGetInteger
	.loc 11 84 0
	movl	%eax, %r14d
	movl	$3557, %edi
	call	ilGetInteger
	movl	%eax, %r13d
	movl	$3556, %edi
	call	ilGetInteger
	movl	%eax, %r12d
	movl	$3562, %edi
	call	ilGetInteger
	movq	%rbx, 16(%rsp)
	movl	$5121, 8(%rsp)
	movl	%r14d, (%rsp)
	movl	$0, %r9d
	movl	%r13d, %r8d
	movl	%r12d, %ecx
	movl	%eax, %edx
	movl	$0, %esi
	movl	$3553, %edi
	call	glTexImage2D
.LBE20:
	jmp	.L97
.L93:
.LBB23:
	.loc 11 87 0
	call	ilGetError
	movl	%eax, -116(%rbp)
	.loc 11 88 0
	movl	-116(%rbp), %eax
	movl	%eax, %edi
	call	iluErrorString
	movq	%rax, %rbx
	movl	$.LC24, %esi
	movl	$_ZSt4cout, %edi
	call	_ZStlsISt11char_traitsIcEERSt13basic_ostreamIcT_ES5_PKc
	movl	-116(%rbp), %edx
	movl	%edx, %esi
	movq	%rax, %rdi
	call	_ZNSolsEj
	movl	$.LC23, %esi
	movq	%rax, %rdi
	call	_ZStlsISt11char_traitsIcEERSt13basic_ostreamIcT_ES5_PKc
	movq	%rbx, %rsi
	movq	%rax, %rdi
	call	_ZStlsISt11char_traitsIcEERSt13basic_ostreamIcT_ES5_PKc
	movl	$_ZSt4endlIcSt11char_traitsIcEERSt13basic_ostreamIT_T0_ES6_, %esi
	movq	%rax, %rdi
	call	_ZNSolsEPFRSoS_E
	.loc 11 89 0
	movl	$-1, %edi
	call	exit
.L97:
.LBE23:
.LBE19:
	.loc 11 92 0
	leaq	-124(%rbp), %rax
	movq	%rax, %rsi
	movl	$1, %edi
	call	ilDeleteImages
.LBE18:
	.loc 11 93 0
	subq	$-128, %rsp
	popq	%rbx
	popq	%r12
	popq	%r13
	popq	%r14
	popq	%rbp
	.cfi_def_cfa 7, 8
	ret
	.cfi_endproc
.LFE3349:
	.size	_ZN13TextureLoader4loadESs, .-_ZN13TextureLoader4loadESs
	.align 2
	.globl	_ZN13TextureLoader6InitILEv
	.type	_ZN13TextureLoader6InitILEv, @function
_ZN13TextureLoader6InitILEv:
.LFB3350:
	.loc 11 95 0
	.cfi_startproc
	pushq	%rbp
	.cfi_def_cfa_offset 16
	.cfi_offset 6, -16
	movq	%rsp, %rbp
	.cfi_def_cfa_register 6
	.loc 11 97 0
	call	ilInit
	.loc 11 98 0
	call	iluInit
	.loc 11 99 0
	call	ilutInit
	.loc 11 100 0
	movl	$0, %edi
	call	ilutRenderer
	.loc 11 101 0
	movb	$1, _ZN13TextureLoader8__initedE(%rip)
	.loc 11 102 0
	popq	%rbp
	.cfi_def_cfa 7, 8
	ret
	.cfi_endproc
.LFE3350:
	.size	_ZN13TextureLoader6InitILEv, .-_ZN13TextureLoader6InitILEv
	.align 2
	.globl	_ZN13TextureLoader12getTextureIDEv
	.type	_ZN13TextureLoader12getTextureIDEv, @function
_ZN13TextureLoader12getTextureIDEv:
.LFB3351:
	.loc 11 104 0
	.cfi_startproc
	pushq	%rbp
	.cfi_def_cfa_offset 16
	.cfi_offset 6, -16
	movq	%rsp, %rbp
	.cfi_def_cfa_register 6
	.loc 11 105 0
	movl	_ZN13TextureLoader16__texture_handleE(%rip), %eax
	.loc 11 106 0
	popq	%rbp
	.cfi_def_cfa 7, 8
	ret
	.cfi_endproc
.LFE3351:
	.size	_ZN13TextureLoader12getTextureIDEv, .-_ZN13TextureLoader12getTextureIDEv
	.section	.text._ZN4Util7TextureC2Ev,"axG",@progbits,_ZN4Util7TextureC5Ev,comdat
	.align 2
	.weak	_ZN4Util7TextureC2Ev
	.type	_ZN4Util7TextureC2Ev, @function
_ZN4Util7TextureC2Ev:
.LFB3353:
	.file 12 "/home/joe/Github_Repos/CustomLibs/GL_Utils/Texture.h"
	.loc 12 27 0
	.cfi_startproc
	pushq	%rbp
	.cfi_def_cfa_offset 16
	.cfi_offset 6, -16
	movq	%rsp, %rbp
	.cfi_def_cfa_register 6
	movq	%rdi, -8(%rbp)
	.loc 12 27 0
	popq	%rbp
	.cfi_def_cfa 7, 8
	ret
	.cfi_endproc
.LFE3353:
	.size	_ZN4Util7TextureC2Ev, .-_ZN4Util7TextureC2Ev
	.weak	_ZN4Util7TextureC1Ev
	.set	_ZN4Util7TextureC1Ev,_ZN4Util7TextureC2Ev
	.text
	.align 2
	.globl	_ZN4Util7TextureC2ESs
	.type	_ZN4Util7TextureC2ESs, @function
_ZN4Util7TextureC2ESs:
.LFB3357:
	.loc 12 34 0
	.cfi_startproc
	.cfi_personality 0x3,__gxx_personality_v0
	.cfi_lsda 0x3,.LLSDA3357
	pushq	%rbp
	.cfi_def_cfa_offset 16
	.cfi_offset 6, -16
	movq	%rsp, %rbp
	.cfi_def_cfa_register 6
	pushq	%rbx
	subq	$40, %rsp
	.cfi_offset 3, -24
	movq	%rdi, -40(%rbp)
	movq	%rsi, -48(%rbp)
.LBB24:
	.loc 12 35 0
	movq	-48(%rbp), %rdx
	leaq	-32(%rbp), %rax
	movq	%rdx, %rsi
	movq	%rax, %rdi
.LEHB29:
	call	_ZNSsC1ERKSs
.LEHE29:
	leaq	-32(%rbp), %rax
	movq	%rax, %rdi
.LEHB30:
	call	_ZN13TextureLoader4loadESs
.LEHE30:
	.loc 12 35 0 is_stmt 0 discriminator 1
	leaq	-32(%rbp), %rax
	movq	%rax, %rdi
	call	_ZNSsD1Ev
	.loc 12 36 0 is_stmt 1 discriminator 1
	call	_ZN13TextureLoader12getTextureIDEv
	movq	-40(%rbp), %rdx
	movl	%eax, (%rdx)
	jmp	.L105
.L104:
	movq	%rax, %rbx
	.loc 12 35 0
	leaq	-32(%rbp), %rax
	movq	%rax, %rdi
	call	_ZNSsD1Ev
	movq	%rbx, %rax
	movq	%rax, %rdi
.LEHB31:
	call	_Unwind_Resume
.LEHE31:
.L105:
.LBE24:
	.loc 12 37 0
	addq	$40, %rsp
	popq	%rbx
	popq	%rbp
	.cfi_def_cfa 7, 8
	ret
	.cfi_endproc
.LFE3357:
	.section	.gcc_except_table
.LLSDA3357:
	.byte	0xff
	.byte	0xff
	.byte	0x1
	.uleb128 .LLSDACSE3357-.LLSDACSB3357
.LLSDACSB3357:
	.uleb128 .LEHB29-.LFB3357
	.uleb128 .LEHE29-.LEHB29
	.uleb128 0
	.uleb128 0
	.uleb128 .LEHB30-.LFB3357
	.uleb128 .LEHE30-.LEHB30
	.uleb128 .L104-.LFB3357
	.uleb128 0
	.uleb128 .LEHB31-.LFB3357
	.uleb128 .LEHE31-.LEHB31
	.uleb128 0
	.uleb128 0
.LLSDACSE3357:
	.text
	.size	_ZN4Util7TextureC2ESs, .-_ZN4Util7TextureC2ESs
	.globl	_ZN4Util7TextureC1ESs
	.set	_ZN4Util7TextureC1ESs,_ZN4Util7TextureC2ESs
	.align 2
	.globl	_ZN4Util7TextureC2ESsSs
	.type	_ZN4Util7TextureC2ESsSs, @function
_ZN4Util7TextureC2ESsSs:
.LFB3360:
	.loc 12 39 0
	.cfi_startproc
	.cfi_personality 0x3,__gxx_personality_v0
	.cfi_lsda 0x3,.LLSDA3360
	pushq	%rbp
	.cfi_def_cfa_offset 16
	.cfi_offset 6, -16
	movq	%rsp, %rbp
	.cfi_def_cfa_register 6
	pushq	%rbx
	subq	$56, %rsp
	.cfi_offset 3, -24
	movq	%rdi, -40(%rbp)
	movq	%rsi, -48(%rbp)
	movq	%rdx, -56(%rbp)
.LBB25:
	.loc 12 40 0
	leaq	-32(%rbp), %rax
	movq	-56(%rbp), %rdx
	movq	-48(%rbp), %rcx
	movq	%rcx, %rsi
	movq	%rax, %rdi
.LEHB32:
	call	_ZStplIcSt11char_traitsIcESaIcEESbIT_T0_T1_ERKS6_S8_
.LEHE32:
	leaq	-32(%rbp), %rax
	movq	%rax, %rdi
.LEHB33:
	call	_ZN13TextureLoader4loadESs
.LEHE33:
	.loc 12 40 0 is_stmt 0 discriminator 1
	leaq	-32(%rbp), %rax
	movq	%rax, %rdi
	call	_ZNSsD1Ev
	.loc 12 41 0 is_stmt 1 discriminator 1
	call	_ZN13TextureLoader12getTextureIDEv
	movq	-40(%rbp), %rdx
	movl	%eax, (%rdx)
	jmp	.L109
.L108:
	movq	%rax, %rbx
	.loc 12 40 0
	leaq	-32(%rbp), %rax
	movq	%rax, %rdi
	call	_ZNSsD1Ev
	movq	%rbx, %rax
	movq	%rax, %rdi
.LEHB34:
	call	_Unwind_Resume
.LEHE34:
.L109:
.LBE25:
	.loc 12 42 0
	addq	$56, %rsp
	popq	%rbx
	popq	%rbp
	.cfi_def_cfa 7, 8
	ret
	.cfi_endproc
.LFE3360:
	.section	.gcc_except_table
.LLSDA3360:
	.byte	0xff
	.byte	0xff
	.byte	0x1
	.uleb128 .LLSDACSE3360-.LLSDACSB3360
.LLSDACSB3360:
	.uleb128 .LEHB32-.LFB3360
	.uleb128 .LEHE32-.LEHB32
	.uleb128 0
	.uleb128 0
	.uleb128 .LEHB33-.LFB3360
	.uleb128 .LEHE33-.LEHB33
	.uleb128 .L108-.LFB3360
	.uleb128 0
	.uleb128 .LEHB34-.LFB3360
	.uleb128 .LEHE34-.LEHB34
	.uleb128 0
	.uleb128 0
.LLSDACSE3360:
	.text
	.size	_ZN4Util7TextureC2ESsSs, .-_ZN4Util7TextureC2ESsSs
	.globl	_ZN4Util7TextureC1ESsSs
	.set	_ZN4Util7TextureC1ESsSs,_ZN4Util7TextureC2ESsSs
	.align 2
	.globl	_ZN4Util7Texture4bindEv
	.type	_ZN4Util7Texture4bindEv, @function
_ZN4Util7Texture4bindEv:
.LFB3362:
	.loc 12 44 0
	.cfi_startproc
	pushq	%rbp
	.cfi_def_cfa_offset 16
	.cfi_offset 6, -16
	movq	%rsp, %rbp
	.cfi_def_cfa_register 6
	subq	$16, %rsp
	movq	%rdi, -8(%rbp)
	.loc 12 45 0
	movq	-8(%rbp), %rax
	movl	(%rax), %eax
	movl	%eax, %esi
	movl	$3553, %edi
	call	glBindTexture
	.loc 12 46 0
	leave
	.cfi_def_cfa 7, 8
	ret
	.cfi_endproc
.LFE3362:
	.size	_ZN4Util7Texture4bindEv, .-_ZN4Util7Texture4bindEv
	.align 2
	.globl	_ZN4Util6CameraC2Ev
	.type	_ZN4Util6CameraC2Ev, @function
_ZN4Util6CameraC2Ev:
.LFB3364:
	.file 13 "/home/joe/Github_Repos/CustomLibs/GL_Utils/Camera.h"
	.loc 13 37 0
	.cfi_startproc
	pushq	%rbp
	.cfi_def_cfa_offset 16
	.cfi_offset 6, -16
	movq	%rsp, %rbp
	.cfi_def_cfa_register 6
	subq	$48, %rsp
	movq	%rdi, -40(%rbp)
.LBB26:
	.loc 13 37 0
	movq	-40(%rbp), %rax
	movq	%rax, %rdi
	call	_ZN3glm6detail5tvec3IfLNS_9precisionE0EEC1Ev
	movq	-40(%rbp), %rax
	addq	$12, %rax
	movq	%rax, %rdi
	call	_ZN3glm6detail5tvec3IfLNS_9precisionE0EEC1Ev
	movq	-40(%rbp), %rax
	addq	$24, %rax
	movq	%rax, %rdi
	call	_ZN3glm6detail5tvec3IfLNS_9precisionE0EEC1Ev
	.loc 13 38 0
	movl	$0, -20(%rbp)
	movl	$1, -24(%rbp)
	movl	$0, -28(%rbp)
	leaq	-20(%rbp), %rcx
	leaq	-24(%rbp), %rdx
	leaq	-28(%rbp), %rsi
	leaq	-16(%rbp), %rax
	movq	%rax, %rdi
	call	_ZN3glm6detail5tvec3IfLNS_9precisionE0EEC1IiiiEERKT_RKT0_RKT1_
	movq	-40(%rbp), %rax
	leaq	24(%rax), %rdx
	leaq	-16(%rbp), %rax
	movq	%rax, %rsi
	movq	%rdx, %rdi
	call	_ZN3glm6detail5tvec3IfLNS_9precisionE0EEaSERKS3_
.LBE26:
	.loc 13 39 0
	leave
	.cfi_def_cfa 7, 8
	ret
	.cfi_endproc
.LFE3364:
	.size	_ZN4Util6CameraC2Ev, .-_ZN4Util6CameraC2Ev
	.globl	_ZN4Util6CameraC1Ev
	.set	_ZN4Util6CameraC1Ev,_ZN4Util6CameraC2Ev
	.align 2
	.globl	_ZN4Util6Camera11setLocationEN3glm6detail5tvec3IfLNS1_9precisionE0EEE
	.type	_ZN4Util6Camera11setLocationEN3glm6detail5tvec3IfLNS1_9precisionE0EEE, @function
_ZN4Util6Camera11setLocationEN3glm6detail5tvec3IfLNS1_9precisionE0EEE:
.LFB3366:
	.loc 13 41 0
	.cfi_startproc
	pushq	%rbp
	.cfi_def_cfa_offset 16
	.cfi_offset 6, -16
	movq	%rsp, %rbp
	.cfi_def_cfa_register 6
	subq	$16, %rsp
	movq	%rdi, -8(%rbp)
	movq	%rsi, -16(%rbp)
	.loc 13 42 0
	movq	-8(%rbp), %rax
	movq	-16(%rbp), %rdx
	movq	%rdx, %rsi
	movq	%rax, %rdi
	call	_ZN3glm6detail5tvec3IfLNS_9precisionE0EEaSERKS3_
	.loc 13 43 0
	leave
	.cfi_def_cfa 7, 8
	ret
	.cfi_endproc
.LFE3366:
	.size	_ZN4Util6Camera11setLocationEN3glm6detail5tvec3IfLNS1_9precisionE0EEE, .-_ZN4Util6Camera11setLocationEN3glm6detail5tvec3IfLNS1_9precisionE0EEE
	.align 2
	.globl	_ZN4Util6Camera12setLookingAtEN3glm6detail5tvec3IfLNS1_9precisionE0EEE
	.type	_ZN4Util6Camera12setLookingAtEN3glm6detail5tvec3IfLNS1_9precisionE0EEE, @function
_ZN4Util6Camera12setLookingAtEN3glm6detail5tvec3IfLNS1_9precisionE0EEE:
.LFB3367:
	.loc 13 45 0
	.cfi_startproc
	pushq	%rbp
	.cfi_def_cfa_offset 16
	.cfi_offset 6, -16
	movq	%rsp, %rbp
	.cfi_def_cfa_register 6
	subq	$16, %rsp
	movq	%rdi, -8(%rbp)
	movq	%rsi, -16(%rbp)
	.loc 13 46 0
	movq	-8(%rbp), %rax
	leaq	12(%rax), %rdx
	movq	-16(%rbp), %rax
	movq	%rax, %rsi
	movq	%rdx, %rdi
	call	_ZN3glm6detail5tvec3IfLNS_9precisionE0EEaSERKS3_
	.loc 13 47 0
	leave
	.cfi_def_cfa 7, 8
	ret
	.cfi_endproc
.LFE3367:
	.size	_ZN4Util6Camera12setLookingAtEN3glm6detail5tvec3IfLNS1_9precisionE0EEE, .-_ZN4Util6Camera12setLookingAtEN3glm6detail5tvec3IfLNS1_9precisionE0EEE
	.align 2
	.globl	_ZN4Util6Camera5setUpEN3glm6detail5tvec3IfLNS1_9precisionE0EEE
	.type	_ZN4Util6Camera5setUpEN3glm6detail5tvec3IfLNS1_9precisionE0EEE, @function
_ZN4Util6Camera5setUpEN3glm6detail5tvec3IfLNS1_9precisionE0EEE:
.LFB3368:
	.loc 13 49 0
	.cfi_startproc
	pushq	%rbp
	.cfi_def_cfa_offset 16
	.cfi_offset 6, -16
	movq	%rsp, %rbp
	.cfi_def_cfa_register 6
	subq	$16, %rsp
	movq	%rdi, -8(%rbp)
	movq	%rsi, -16(%rbp)
	.loc 13 50 0
	movq	-8(%rbp), %rax
	leaq	24(%rax), %rdx
	movq	-16(%rbp), %rax
	movq	%rax, %rsi
	movq	%rdx, %rdi
	call	_ZN3glm6detail5tvec3IfLNS_9precisionE0EEaSERKS3_
	.loc 13 51 0
	leave
	.cfi_def_cfa 7, 8
	ret
	.cfi_endproc
.LFE3368:
	.size	_ZN4Util6Camera5setUpEN3glm6detail5tvec3IfLNS1_9precisionE0EEE, .-_ZN4Util6Camera5setUpEN3glm6detail5tvec3IfLNS1_9precisionE0EEE
	.align 2
	.globl	_ZN4Util6Camera9getViewTfEv
	.type	_ZN4Util6Camera9getViewTfEv, @function
_ZN4Util6Camera9getViewTfEv:
.LFB3369:
	.loc 13 53 0
	.cfi_startproc
	pushq	%rbp
	.cfi_def_cfa_offset 16
	.cfi_offset 6, -16
	movq	%rsp, %rbp
	.cfi_def_cfa_register 6
	subq	$16, %rsp
	movq	%rdi, -8(%rbp)
	movq	%rsi, -16(%rbp)
	.loc 13 54 0
	movq	-16(%rbp), %rax
	leaq	24(%rax), %rcx
	movq	-16(%rbp), %rax
	leaq	12(%rax), %rdx
	movq	-16(%rbp), %rsi
	movq	-8(%rbp), %rax
	movq	%rax, %rdi
	call	_ZN3glm6lookAtIfLNS_9precisionE0EEENS_6detail7tmat4x4IT_XT0_EEERKNS2_5tvec3IS4_XT0_EEES9_S9_
	.loc 13 55 0
	movq	-8(%rbp), %rax
	leave
	.cfi_def_cfa 7, 8
	ret
	.cfi_endproc
.LFE3369:
	.size	_ZN4Util6Camera9getViewTfEv, .-_ZN4Util6Camera9getViewTfEv
	.align 2
	.globl	_ZN4Util17VertexArrayObjectC2Ev
	.type	_ZN4Util17VertexArrayObjectC2Ev, @function
_ZN4Util17VertexArrayObjectC2Ev:
.LFB3371:
	.file 14 "/home/joe/Github_Repos/CustomLibs/GL_Utils/VAO.h"
	.loc 14 29 0
	.cfi_startproc
	pushq	%rbp
	.cfi_def_cfa_offset 16
	.cfi_offset 6, -16
	movq	%rsp, %rbp
	.cfi_def_cfa_register 6
	subq	$16, %rsp
	movq	%rdi, -8(%rbp)
.LBB27:
	.loc 14 29 0
	movq	-8(%rbp), %rax
	movl	$0, (%rax)
	.loc 14 30 0
	movq	__glewGenVertexArrays(%rip), %rax
	movq	-8(%rbp), %rdx
	movq	%rdx, %rsi
	movl	$1, %edi
	call	*%rax
.LBE27:
	.loc 14 31 0
	leave
	.cfi_def_cfa 7, 8
	ret
	.cfi_endproc
.LFE3371:
	.size	_ZN4Util17VertexArrayObjectC2Ev, .-_ZN4Util17VertexArrayObjectC2Ev
	.globl	_ZN4Util17VertexArrayObjectC1Ev
	.set	_ZN4Util17VertexArrayObjectC1Ev,_ZN4Util17VertexArrayObjectC2Ev
	.align 2
	.globl	_ZN4Util17VertexArrayObject4bindEv
	.type	_ZN4Util17VertexArrayObject4bindEv, @function
_ZN4Util17VertexArrayObject4bindEv:
.LFB3373:
	.loc 14 33 0
	.cfi_startproc
	pushq	%rbp
	.cfi_def_cfa_offset 16
	.cfi_offset 6, -16
	movq	%rsp, %rbp
	.cfi_def_cfa_register 6
	subq	$16, %rsp
	movq	%rdi, -8(%rbp)
	.loc 14 34 0
	movq	__glewBindVertexArray(%rip), %rax
	movq	-8(%rbp), %rdx
	movl	(%rdx), %edx
	movl	%edx, %edi
	call	*%rax
	.loc 14 35 0
	leave
	.cfi_def_cfa 7, 8
	ret
	.cfi_endproc
.LFE3373:
	.size	_ZN4Util17VertexArrayObject4bindEv, .-_ZN4Util17VertexArrayObject4bindEv
	.align 2
	.globl	_ZN4Util17VertexArrayObject15enableAttributeEi
	.type	_ZN4Util17VertexArrayObject15enableAttributeEi, @function
_ZN4Util17VertexArrayObject15enableAttributeEi:
.LFB3374:
	.loc 14 37 0
	.cfi_startproc
	pushq	%rbp
	.cfi_def_cfa_offset 16
	.cfi_offset 6, -16
	movq	%rsp, %rbp
	.cfi_def_cfa_register 6
	subq	$16, %rsp
	movq	%rdi, -8(%rbp)
	movl	%esi, -12(%rbp)
	.loc 14 38 0
	movq	__glewEnableVertexAttribArray(%rip), %rax
	movl	-12(%rbp), %edx
	movl	%edx, %edi
	call	*%rax
	.loc 14 39 0
	leave
	.cfi_def_cfa 7, 8
	ret
	.cfi_endproc
.LFE3374:
	.size	_ZN4Util17VertexArrayObject15enableAttributeEi, .-_ZN4Util17VertexArrayObject15enableAttributeEi
	.align 2
	.globl	_ZN4Util17VertexArrayObject16disableAttributeEi
	.type	_ZN4Util17VertexArrayObject16disableAttributeEi, @function
_ZN4Util17VertexArrayObject16disableAttributeEi:
.LFB3375:
	.loc 14 41 0
	.cfi_startproc
	pushq	%rbp
	.cfi_def_cfa_offset 16
	.cfi_offset 6, -16
	movq	%rsp, %rbp
	.cfi_def_cfa_register 6
	subq	$16, %rsp
	movq	%rdi, -8(%rbp)
	movl	%esi, -12(%rbp)
	.loc 14 42 0
	movq	__glewDisableVertexAttribArray(%rip), %rax
	movl	-12(%rbp), %edx
	movl	%edx, %edi
	call	*%rax
	.loc 14 43 0
	leave
	.cfi_def_cfa 7, 8
	ret
	.cfi_endproc
.LFE3375:
	.size	_ZN4Util17VertexArrayObject16disableAttributeEi, .-_ZN4Util17VertexArrayObject16disableAttributeEi
	.align 2
	.globl	_ZN4Util18VertexBufferObjectC2Ev
	.type	_ZN4Util18VertexBufferObjectC2Ev, @function
_ZN4Util18VertexBufferObjectC2Ev:
.LFB3378:
	.file 15 "/home/joe/Github_Repos/CustomLibs/GL_Utils/VBO.h"
	.loc 15 45 0
	.cfi_startproc
	pushq	%rbp
	.cfi_def_cfa_offset 16
	.cfi_offset 6, -16
	movq	%rsp, %rbp
	.cfi_def_cfa_register 6
	subq	$16, %rsp
	movq	%rdi, -8(%rbp)
.LBB28:
	.loc 15 45 0
	movq	-8(%rbp), %rax
	movl	$0, (%rax)
	movq	-8(%rbp), %rax
	movb	$0, 16(%rax)
	.loc 15 46 0
	movq	__glewGenBuffers(%rip), %rax
	movq	-8(%rbp), %rdx
	movq	%rdx, %rsi
	movl	$1, %edi
	call	*%rax
.LBE28:
	.loc 15 47 0
	leave
	.cfi_def_cfa 7, 8
	ret
	.cfi_endproc
.LFE3378:
	.size	_ZN4Util18VertexBufferObjectC2Ev, .-_ZN4Util18VertexBufferObjectC2Ev
	.globl	_ZN4Util18VertexBufferObjectC1Ev
	.set	_ZN4Util18VertexBufferObjectC1Ev,_ZN4Util18VertexBufferObjectC2Ev
	.align 2
	.globl	_ZN4Util18VertexBufferObject10bufferDataEPKvi
	.type	_ZN4Util18VertexBufferObject10bufferDataEPKvi, @function
_ZN4Util18VertexBufferObject10bufferDataEPKvi:
.LFB3380:
	.loc 15 49 0
	.cfi_startproc
	pushq	%rbp
	.cfi_def_cfa_offset 16
	.cfi_offset 6, -16
	movq	%rsp, %rbp
	.cfi_def_cfa_register 6
	subq	$32, %rsp
	movq	%rdi, -8(%rbp)
	movq	%rsi, -16(%rbp)
	movl	%edx, -20(%rbp)
	.loc 15 50 0
	movq	__glewBufferData(%rip), %rax
	movl	-20(%rbp), %edx
	movslq	%edx, %rsi
	movq	-16(%rbp), %rdx
	movl	$35044, %ecx
	movl	$34962, %edi
	call	*%rax
	.loc 15 51 0
	leave
	.cfi_def_cfa 7, 8
	ret
	.cfi_endproc
.LFE3380:
	.size	_ZN4Util18VertexBufferObject10bufferDataEPKvi, .-_ZN4Util18VertexBufferObject10bufferDataEPKvi
	.align 2
	.globl	_ZN4Util18VertexBufferObject4bindEv
	.type	_ZN4Util18VertexBufferObject4bindEv, @function
_ZN4Util18VertexBufferObject4bindEv:
.LFB3381:
	.loc 15 53 0
	.cfi_startproc
	pushq	%rbp
	.cfi_def_cfa_offset 16
	.cfi_offset 6, -16
	movq	%rsp, %rbp
	.cfi_def_cfa_register 6
	subq	$16, %rsp
	movq	%rdi, -8(%rbp)
	.loc 15 54 0
	movq	__glewBindBuffer(%rip), %rax
	movq	-8(%rbp), %rdx
	movl	(%rdx), %edx
	movl	%edx, %esi
	movl	$34962, %edi
	call	*%rax
	.loc 15 55 0
	leave
	.cfi_def_cfa 7, 8
	ret
	.cfi_endproc
.LFE3381:
	.size	_ZN4Util18VertexBufferObject4bindEv, .-_ZN4Util18VertexBufferObject4bindEv
	.align 2
	.globl	_ZN4Util18VertexBufferObject16setAttribPtrDataEiiih
	.type	_ZN4Util18VertexBufferObject16setAttribPtrDataEiiih, @function
_ZN4Util18VertexBufferObject16setAttribPtrDataEiiih:
.LFB3382:
	.loc 15 57 0
	.cfi_startproc
	pushq	%rbp
	.cfi_def_cfa_offset 16
	.cfi_offset 6, -16
	movq	%rsp, %rbp
	.cfi_def_cfa_register 6
	movq	%rdi, -8(%rbp)
	movl	%esi, -12(%rbp)
	movl	%edx, -16(%rbp)
	movl	%ecx, -20(%rbp)
	movl	%r8d, %eax
	movb	%al, -24(%rbp)
	.loc 15 58 0
	movq	-8(%rbp), %rax
	movl	-12(%rbp), %edx
	movl	%edx, 4(%rax)
	.loc 15 59 0
	movq	-8(%rbp), %rax
	movl	-16(%rbp), %edx
	movl	%edx, 8(%rax)
	.loc 15 60 0
	movq	-8(%rbp), %rax
	movl	-20(%rbp), %edx
	movl	%edx, 12(%rax)
	.loc 15 61 0
	movq	-8(%rbp), %rax
	movzbl	-24(%rbp), %edx
	movb	%dl, 16(%rax)
	.loc 15 62 0
	popq	%rbp
	.cfi_def_cfa 7, 8
	ret
	.cfi_endproc
.LFE3382:
	.size	_ZN4Util18VertexBufferObject16setAttribPtrDataEiiih, .-_ZN4Util18VertexBufferObject16setAttribPtrDataEiiih
	.align 2
	.globl	_ZN4Util18VertexBufferObject21generateAttribPointerEv
	.type	_ZN4Util18VertexBufferObject21generateAttribPointerEv, @function
_ZN4Util18VertexBufferObject21generateAttribPointerEv:
.LFB3383:
	.loc 15 64 0
	.cfi_startproc
	pushq	%rbp
	.cfi_def_cfa_offset 16
	.cfi_offset 6, -16
	movq	%rsp, %rbp
	.cfi_def_cfa_register 6
	subq	$16, %rsp
	movq	%rdi, -8(%rbp)
	.loc 15 71 0
	movq	__glewVertexAttribPointer(%rip), %rax
	movq	-8(%rbp), %rdx
	movzbl	16(%rdx), %edx
	movzbl	%dl, %ecx
	movq	-8(%rbp), %rdx
	movl	12(%rdx), %edx
	movq	-8(%rbp), %rsi
	movl	8(%rsi), %esi
	movq	-8(%rbp), %rdi
	movl	4(%rdi), %edi
	movl	$0, %r9d
	movl	$0, %r8d
	call	*%rax
	.loc 15 72 0
	leave
	.cfi_def_cfa 7, 8
	ret
	.cfi_endproc
.LFE3383:
	.size	_ZN4Util18VertexBufferObject21generateAttribPointerEv, .-_ZN4Util18VertexBufferObject21generateAttribPointerEv
	.section	.text._ZN4Util8FloatCam11setPositionEN3glm6detail5tvec3IfLNS1_9precisionE0EEE,"axG",@progbits,_ZN4Util8FloatCam11setPositionEN3glm6detail5tvec3IfLNS1_9precisionE0EEE,comdat
	.align 2
	.weak	_ZN4Util8FloatCam11setPositionEN3glm6detail5tvec3IfLNS1_9precisionE0EEE
	.type	_ZN4Util8FloatCam11setPositionEN3glm6detail5tvec3IfLNS1_9precisionE0EEE, @function
_ZN4Util8FloatCam11setPositionEN3glm6detail5tvec3IfLNS1_9precisionE0EEE:
.LFB3384:
	.file 16 "/home/joe/Github_Repos/CustomLibs/GL_Utils/FloatCam.h"
	.loc 16 38 0
	.cfi_startproc
	pushq	%rbp
	.cfi_def_cfa_offset 16
	.cfi_offset 6, -16
	movq	%rsp, %rbp
	.cfi_def_cfa_register 6
	subq	$16, %rsp
	movq	%rdi, -8(%rbp)
	movq	%rsi, -16(%rbp)
	.loc 16 38 0
	movq	-8(%rbp), %rax
	movq	-16(%rbp), %rdx
	movq	%rdx, %rsi
	movq	%rax, %rdi
	call	_ZN3glm6detail5tvec3IfLNS_9precisionE0EEaSERKS3_
	leave
	.cfi_def_cfa 7, 8
	ret
	.cfi_endproc
.LFE3384:
	.size	_ZN4Util8FloatCam11setPositionEN3glm6detail5tvec3IfLNS1_9precisionE0EEE, .-_ZN4Util8FloatCam11setPositionEN3glm6detail5tvec3IfLNS1_9precisionE0EEE
	.section	.text._ZN4Util8FloatCam14setOrientationEff,"axG",@progbits,_ZN4Util8FloatCam14setOrientationEff,comdat
	.align 2
	.weak	_ZN4Util8FloatCam14setOrientationEff
	.type	_ZN4Util8FloatCam14setOrientationEff, @function
_ZN4Util8FloatCam14setOrientationEff:
.LFB3385:
	.loc 16 41 0
	.cfi_startproc
	pushq	%rbp
	.cfi_def_cfa_offset 16
	.cfi_offset 6, -16
	movq	%rsp, %rbp
	.cfi_def_cfa_register 6
	movq	%rdi, -8(%rbp)
	movss	%xmm0, -12(%rbp)
	movss	%xmm1, -16(%rbp)
	.loc 16 42 0
	movq	-8(%rbp), %rdx
	movl	-12(%rbp), %eax
	movl	%eax, 24(%rdx)
	.loc 16 43 0
	movq	-8(%rbp), %rdx
	movl	-16(%rbp), %eax
	movl	%eax, 28(%rdx)
	.loc 16 44 0
	popq	%rbp
	.cfi_def_cfa 7, 8
	ret
	.cfi_endproc
.LFE3385:
	.size	_ZN4Util8FloatCam14setOrientationEff, .-_ZN4Util8FloatCam14setOrientationEff
	.section	.text._ZN4Util8FloatCam11getPositionEv,"axG",@progbits,_ZN4Util8FloatCam11getPositionEv,comdat
	.align 2
	.weak	_ZN4Util8FloatCam11getPositionEv
	.type	_ZN4Util8FloatCam11getPositionEv, @function
_ZN4Util8FloatCam11getPositionEv:
.LFB3386:
	.loc 16 47 0
	.cfi_startproc
	pushq	%rbp
	.cfi_def_cfa_offset 16
	.cfi_offset 6, -16
	movq	%rsp, %rbp
	.cfi_def_cfa_register 6
	subq	$16, %rsp
	movq	%rdi, -8(%rbp)
	movq	%rsi, -16(%rbp)
	.loc 16 47 0
	movq	-16(%rbp), %rdx
	movq	-8(%rbp), %rax
	movq	%rdx, %rsi
	movq	%rax, %rdi
	call	_ZN3glm6detail5tvec3IfLNS_9precisionE0EEC1ERKS3_
	movq	-8(%rbp), %rax
	leave
	.cfi_def_cfa 7, 8
	ret
	.cfi_endproc
.LFE3386:
	.size	_ZN4Util8FloatCam11getPositionEv, .-_ZN4Util8FloatCam11getPositionEv
	.section	.text._ZN4Util8FloatCam12getDirectionEv,"axG",@progbits,_ZN4Util8FloatCam12getDirectionEv,comdat
	.align 2
	.weak	_ZN4Util8FloatCam12getDirectionEv
	.type	_ZN4Util8FloatCam12getDirectionEv, @function
_ZN4Util8FloatCam12getDirectionEv:
.LFB3387:
	.loc 16 50 0
	.cfi_startproc
	pushq	%rbp
	.cfi_def_cfa_offset 16
	.cfi_offset 6, -16
	movq	%rsp, %rbp
	.cfi_def_cfa_register 6
	subq	$16, %rsp
	movq	%rdi, -8(%rbp)
	movq	%rsi, -16(%rbp)
	.loc 16 50 0
	movq	-16(%rbp), %rax
	leaq	12(%rax), %rdx
	movq	-8(%rbp), %rax
	movq	%rdx, %rsi
	movq	%rax, %rdi
	call	_ZN3glm6detail5tvec3IfLNS_9precisionE0EEC1ERKS3_
	movq	-8(%rbp), %rax
	leave
	.cfi_def_cfa 7, 8
	ret
	.cfi_endproc
.LFE3387:
	.size	_ZN4Util8FloatCam12getDirectionEv, .-_ZN4Util8FloatCam12getDirectionEv
	.text
	.align 2
	.globl	_ZN4Util8FloatCamC2EN3glm6detail5tvec3IfLNS1_9precisionE0EEEfiifP10GLFWwindow
	.type	_ZN4Util8FloatCamC2EN3glm6detail5tvec3IfLNS1_9precisionE0EEEfiifP10GLFWwindow, @function
_ZN4Util8FloatCamC2EN3glm6detail5tvec3IfLNS1_9precisionE0EEEfiifP10GLFWwindow:
.LFB3389:
	.loc 16 56 0
	.cfi_startproc
	pushq	%rbp
	.cfi_def_cfa_offset 16
	.cfi_offset 6, -16
	movq	%rsp, %rbp
	.cfi_def_cfa_register 6
	subq	$48, %rsp
	movq	%rdi, -8(%rbp)
	movq	%rsi, -16(%rbp)
	movss	%xmm0, -20(%rbp)
	movl	%edx, -24(%rbp)
	movl	%ecx, -28(%rbp)
	movss	%xmm1, -32(%rbp)
	movq	%r8, -40(%rbp)
.LBB29:
	.loc 16 56 0
	movq	-8(%rbp), %rax
	movq	%rax, %rdi
	call	_ZN3glm6detail5tvec3IfLNS_9precisionE0EEC1Ev
	movq	-8(%rbp), %rax
	addq	$12, %rax
	movq	%rax, %rdi
	call	_ZN3glm6detail5tvec3IfLNS_9precisionE0EEC1Ev
	movq	-8(%rbp), %rdx
	movl	.LC25(%rip), %eax
	movl	%eax, 24(%rdx)
	movq	-8(%rbp), %rdx
	movl	.LC25(%rip), %eax
	movl	%eax, 28(%rdx)
	movq	-8(%rbp), %rdx
	movl	.LC26(%rip), %eax
	movl	%eax, 32(%rdx)
	movq	-8(%rbp), %rdx
	movl	.LC27(%rip), %eax
	movl	%eax, 36(%rdx)
	movq	-8(%rbp), %rdx
	movl	.LC28(%rip), %eax
	movl	%eax, 40(%rdx)
	movq	-8(%rbp), %rax
	movb	$1, 64(%rax)
	.loc 16 57 0
	movq	-8(%rbp), %rax
	movq	-16(%rbp), %rdx
	movq	%rdx, %rsi
	movq	%rax, %rdi
	call	_ZN3glm6detail5tvec3IfLNS_9precisionE0EEaSERKS3_
	.loc 16 58 0
	movq	-8(%rbp), %rdx
	movl	-20(%rbp), %eax
	movl	%eax, 36(%rdx)
	.loc 16 59 0
	movq	-8(%rbp), %rax
	movl	-24(%rbp), %edx
	movl	%edx, 44(%rax)
	.loc 16 60 0
	movq	-8(%rbp), %rax
	movl	-28(%rbp), %edx
	movl	%edx, 48(%rax)
	.loc 16 61 0
	movq	-8(%rbp), %rdx
	movl	-32(%rbp), %eax
	movl	%eax, 40(%rdx)
	.loc 16 62 0
	movq	-8(%rbp), %rax
	movq	-40(%rbp), %rdx
	movq	%rdx, 56(%rax)
.LBE29:
	.loc 16 63 0
	leave
	.cfi_def_cfa 7, 8
	ret
	.cfi_endproc
.LFE3389:
	.size	_ZN4Util8FloatCamC2EN3glm6detail5tvec3IfLNS1_9precisionE0EEEfiifP10GLFWwindow, .-_ZN4Util8FloatCamC2EN3glm6detail5tvec3IfLNS1_9precisionE0EEEfiifP10GLFWwindow
	.globl	_ZN4Util8FloatCamC1EN3glm6detail5tvec3IfLNS1_9precisionE0EEEfiifP10GLFWwindow
	.set	_ZN4Util8FloatCamC1EN3glm6detail5tvec3IfLNS1_9precisionE0EEEfiifP10GLFWwindow,_ZN4Util8FloatCamC2EN3glm6detail5tvec3IfLNS1_9precisionE0EEEfiifP10GLFWwindow
	.align 2
	.globl	_ZN4Util8FloatCam6updateEf
	.type	_ZN4Util8FloatCam6updateEf, @function
_ZN4Util8FloatCam6updateEf:
.LFB3391:
	.loc 16 65 0
	.cfi_startproc
	pushq	%rbp
	.cfi_def_cfa_offset 16
	.cfi_offset 6, -16
	movq	%rsp, %rbp
	.cfi_def_cfa_register 6
	pushq	%rbx
	subq	$120, %rsp
	.cfi_offset 3, -24
	movq	%rdi, -104(%rbp)
	movss	%xmm0, -108(%rbp)
.LBB30:
	.loc 16 67 0
	movq	-104(%rbp), %rax
	movq	56(%rax), %rax
	leaq	-80(%rbp), %rdx
	leaq	-88(%rbp), %rcx
	movq	%rcx, %rsi
	movq	%rax, %rdi
	call	glfwGetCursorPos
	.loc 16 69 0
	movq	-104(%rbp), %rax
	movzbl	64(%rax), %eax
	testb	%al, %al
	je	.L134
	.loc 16 70 0
	movq	-104(%rbp), %rax
	movl	48(%rax), %eax
	movl	%eax, %edx
	shrl	$31, %edx
	addl	%edx, %eax
	sarl	%eax
	cvtsi2sd	%eax, %xmm1
	movq	-104(%rbp), %rax
	movl	44(%rax), %eax
	movl	%eax, %edx
	shrl	$31, %edx
	addl	%edx, %eax
	sarl	%eax
	cvtsi2sd	%eax, %xmm0
	movq	-104(%rbp), %rax
	movq	56(%rax), %rax
	movq	%rax, %rdi
	call	glfwSetCursorPos
.L134:
	.loc 16 72 0
	movq	-104(%rbp), %rax
	movss	24(%rax), %xmm2
	movq	-104(%rbp), %rax
	movss	40(%rax), %xmm1
	movss	-108(%rbp), %xmm0
	mulss	%xmm0, %xmm1
	movq	-104(%rbp), %rax
	movl	44(%rax), %eax
	movl	%eax, %edx
	shrl	$31, %edx
	addl	%edx, %eax
	sarl	%eax
	cvtsi2sd	%eax, %xmm0
	movsd	-88(%rbp), %xmm3
	subsd	%xmm3, %xmm0
	unpcklpd	%xmm0, %xmm0
	cvtpd2ps	%xmm0, %xmm0
	mulss	%xmm1, %xmm0
	addss	%xmm2, %xmm0
	movq	-104(%rbp), %rax
	movss	%xmm0, 24(%rax)
	.loc 16 73 0
	movq	-104(%rbp), %rax
	movss	28(%rax), %xmm2
	movq	-104(%rbp), %rax
	movss	40(%rax), %xmm1
	movss	-108(%rbp), %xmm0
	mulss	%xmm0, %xmm1
	movq	-104(%rbp), %rax
	movl	48(%rax), %eax
	movl	%eax, %edx
	shrl	$31, %edx
	addl	%edx, %eax
	sarl	%eax
	cvtsi2sd	%eax, %xmm0
	movsd	-80(%rbp), %xmm3
	subsd	%xmm3, %xmm0
	unpcklpd	%xmm0, %xmm0
	cvtpd2ps	%xmm0, %xmm0
	mulss	%xmm1, %xmm0
	addss	%xmm2, %xmm0
	movq	-104(%rbp), %rax
	movss	%xmm0, 28(%rax)
	.loc 16 78 0
	movq	-104(%rbp), %rax
	movss	28(%rax), %xmm0
	unpcklps	%xmm0, %xmm0
	cvtps2pd	%xmm0, %xmm0
	call	cos
	movsd	%xmm0, -120(%rbp)
	movq	-104(%rbp), %rax
	movss	24(%rax), %xmm0
	unpcklps	%xmm0, %xmm0
	cvtps2pd	%xmm0, %xmm0
	call	cos
	mulsd	-120(%rbp), %xmm0
	.loc 16 75 0
	movsd	%xmm0, -48(%rbp)
	.loc 16 77 0
	movq	-104(%rbp), %rax
	movss	28(%rax), %xmm0
	unpcklps	%xmm0, %xmm0
	cvtps2pd	%xmm0, %xmm0
	call	sin
	movsd	%xmm0, -120(%rbp)
	movq	-120(%rbp), %rax
	.loc 16 75 0
	movq	%rax, -64(%rbp)
	.loc 16 76 0
	movq	-104(%rbp), %rax
	movss	28(%rax), %xmm0
	unpcklps	%xmm0, %xmm0
	cvtps2pd	%xmm0, %xmm0
	call	cos
	movsd	%xmm0, -120(%rbp)
	movq	-104(%rbp), %rax
	movss	24(%rax), %xmm0
	unpcklps	%xmm0, %xmm0
	cvtps2pd	%xmm0, %xmm0
	call	sin
	mulsd	-120(%rbp), %xmm0
	.loc 16 75 0
	movsd	%xmm0, -72(%rbp)
	leaq	-48(%rbp), %rcx
	leaq	-64(%rbp), %rdx
	leaq	-72(%rbp), %rsi
	leaq	-32(%rbp), %rax
	movq	%rax, %rdi
	call	_ZN3glm6detail5tvec3IfLNS_9precisionE0EEC1IdddEERKT_RKT0_RKT1_
	movq	-104(%rbp), %rax
	leaq	12(%rax), %rdx
	.loc 16 79 0
	leaq	-32(%rbp), %rax
	movq	%rax, %rsi
	movq	%rdx, %rdi
	call	_ZN3glm6detail5tvec3IfLNS_9precisionE0EEaSERKS3_
	.loc 16 84 0
	movq	-104(%rbp), %rax
	movss	24(%rax), %xmm0
	unpcklps	%xmm0, %xmm0
	cvtps2pd	%xmm0, %xmm0
	movsd	.LC29(%rip), %xmm1
	subsd	%xmm1, %xmm0
	call	cos
	movsd	%xmm0, -120(%rbp)
	movq	-120(%rbp), %rax
	.loc 16 85 0
	movq	%rax, -32(%rbp)
	movl	$0, -72(%rbp)
	.loc 16 82 0
	movq	-104(%rbp), %rax
	movss	24(%rax), %xmm0
	unpcklps	%xmm0, %xmm0
	cvtps2pd	%xmm0, %xmm0
	movsd	.LC29(%rip), %xmm1
	subsd	%xmm1, %xmm0
	call	sin
	movsd	%xmm0, -120(%rbp)
	movq	-120(%rbp), %rax
	.loc 16 85 0
	movq	%rax, -48(%rbp)
	leaq	-32(%rbp), %rcx
	leaq	-72(%rbp), %rdx
	leaq	-48(%rbp), %rsi
	leaq	-64(%rbp), %rax
	movq	%rax, %rdi
	call	_ZN3glm6detail5tvec3IfLNS_9precisionE0EEC1IdidEERKT_RKT0_RKT1_
	.loc 16 88 0
	movq	-104(%rbp), %rax
	movq	56(%rax), %rax
	movl	$265, %esi
	movq	%rax, %rdi
	call	glfwGetKey
	cmpl	$1, %eax
	je	.L135
	.loc 16 88 0 is_stmt 0 discriminator 2
	movq	-104(%rbp), %rax
	movq	56(%rax), %rax
	movl	$87, %esi
	movq	%rax, %rdi
	call	glfwGetKey
	cmpl	$1, %eax
	jne	.L136
.L135:
	.loc 16 88 0 discriminator 1
	movl	$1, %eax
	jmp	.L137
.L136:
	.loc 16 88 0 discriminator 3
	movl	$0, %eax
.L137:
	.loc 16 88 0 discriminator 4
	testb	%al, %al
	je	.L138
	.loc 16 89 0 is_stmt 1
	movq	-104(%rbp), %rax
	leaq	36(%rax), %rbx
	movq	-104(%rbp), %rax
	leaq	12(%rax), %rcx
	leaq	-48(%rbp), %rax
	leaq	-108(%rbp), %rdx
	movq	%rcx, %rsi
	movq	%rax, %rdi
	call	_ZN3glm6detailmlIfLNS_9precisionE0EEENS0_5tvec3IT_XT0_EEERKS5_RKS4_
	leaq	-32(%rbp), %rax
	leaq	-48(%rbp), %rcx
	movq	%rbx, %rdx
	movq	%rcx, %rsi
	movq	%rax, %rdi
	call	_ZN3glm6detailmlIfLNS_9precisionE0EEENS0_5tvec3IT_XT0_EEERKS5_RKS4_
	movq	-104(%rbp), %rax
	leaq	-32(%rbp), %rdx
	movq	%rdx, %rsi
	movq	%rax, %rdi
	call	_ZN3glm6detail5tvec3IfLNS_9precisionE0EEpLIfEERS3_RKNS1_IT_LS2_0EEE
.L138:
	.loc 16 93 0
	movq	-104(%rbp), %rax
	movq	56(%rax), %rax
	movl	$264, %esi
	movq	%rax, %rdi
	call	glfwGetKey
	cmpl	$1, %eax
	je	.L139
	.loc 16 93 0 is_stmt 0 discriminator 2
	movq	-104(%rbp), %rax
	movq	56(%rax), %rax
	movl	$83, %esi
	movq	%rax, %rdi
	call	glfwGetKey
	cmpl	$1, %eax
	jne	.L140
.L139:
	.loc 16 93 0 discriminator 1
	movl	$1, %eax
	jmp	.L141
.L140:
	.loc 16 93 0 discriminator 3
	movl	$0, %eax
.L141:
	.loc 16 93 0 discriminator 4
	testb	%al, %al
	je	.L142
	.loc 16 94 0 is_stmt 1
	movq	-104(%rbp), %rax
	leaq	36(%rax), %rbx
	movq	-104(%rbp), %rax
	leaq	12(%rax), %rcx
	leaq	-48(%rbp), %rax
	leaq	-108(%rbp), %rdx
	movq	%rcx, %rsi
	movq	%rax, %rdi
	call	_ZN3glm6detailmlIfLNS_9precisionE0EEENS0_5tvec3IT_XT0_EEERKS5_RKS4_
	leaq	-32(%rbp), %rax
	leaq	-48(%rbp), %rcx
	movq	%rbx, %rdx
	movq	%rcx, %rsi
	movq	%rax, %rdi
	call	_ZN3glm6detailmlIfLNS_9precisionE0EEENS0_5tvec3IT_XT0_EEERKS5_RKS4_
	movq	-104(%rbp), %rax
	leaq	-32(%rbp), %rdx
	movq	%rdx, %rsi
	movq	%rax, %rdi
	call	_ZN3glm6detail5tvec3IfLNS_9precisionE0EEmIIfEERS3_RKNS1_IT_LS2_0EEE
.L142:
	.loc 16 98 0
	movq	-104(%rbp), %rax
	movq	56(%rax), %rax
	movl	$262, %esi
	movq	%rax, %rdi
	call	glfwGetKey
	cmpl	$1, %eax
	je	.L143
	.loc 16 98 0 is_stmt 0 discriminator 2
	movq	-104(%rbp), %rax
	movq	56(%rax), %rax
	movl	$68, %esi
	movq	%rax, %rdi
	call	glfwGetKey
	cmpl	$1, %eax
	jne	.L144
.L143:
	.loc 16 98 0 discriminator 1
	movl	$1, %eax
	jmp	.L145
.L144:
	.loc 16 98 0 discriminator 3
	movl	$0, %eax
.L145:
	.loc 16 98 0 discriminator 4
	testb	%al, %al
	je	.L146
	.loc 16 99 0 is_stmt 1
	movq	-104(%rbp), %rax
	leaq	36(%rax), %rbx
	leaq	-48(%rbp), %rax
	leaq	-108(%rbp), %rdx
	leaq	-64(%rbp), %rcx
	movq	%rcx, %rsi
	movq	%rax, %rdi
	call	_ZN3glm6detailmlIfLNS_9precisionE0EEENS0_5tvec3IT_XT0_EEERKS5_RKS4_
	leaq	-32(%rbp), %rax
	leaq	-48(%rbp), %rcx
	movq	%rbx, %rdx
	movq	%rcx, %rsi
	movq	%rax, %rdi
	call	_ZN3glm6detailmlIfLNS_9precisionE0EEENS0_5tvec3IT_XT0_EEERKS5_RKS4_
	movq	-104(%rbp), %rax
	leaq	-32(%rbp), %rdx
	movq	%rdx, %rsi
	movq	%rax, %rdi
	call	_ZN3glm6detail5tvec3IfLNS_9precisionE0EEpLIfEERS3_RKNS1_IT_LS2_0EEE
.L146:
	.loc 16 103 0
	movq	-104(%rbp), %rax
	movq	56(%rax), %rax
	movl	$263, %esi
	movq	%rax, %rdi
	call	glfwGetKey
	cmpl	$1, %eax
	je	.L147
	.loc 16 103 0 is_stmt 0 discriminator 2
	movq	-104(%rbp), %rax
	movq	56(%rax), %rax
	movl	$65, %esi
	movq	%rax, %rdi
	call	glfwGetKey
	cmpl	$1, %eax
	jne	.L148
.L147:
	.loc 16 103 0 discriminator 1
	movl	$1, %eax
	jmp	.L149
.L148:
	.loc 16 103 0 discriminator 3
	movl	$0, %eax
.L149:
	.loc 16 103 0 discriminator 4
	testb	%al, %al
	je	.L150
	.loc 16 104 0 is_stmt 1
	movq	-104(%rbp), %rax
	leaq	36(%rax), %rbx
	leaq	-48(%rbp), %rax
	leaq	-108(%rbp), %rdx
	leaq	-64(%rbp), %rcx
	movq	%rcx, %rsi
	movq	%rax, %rdi
	call	_ZN3glm6detailmlIfLNS_9precisionE0EEENS0_5tvec3IT_XT0_EEERKS5_RKS4_
	leaq	-32(%rbp), %rax
	leaq	-48(%rbp), %rcx
	movq	%rbx, %rdx
	movq	%rcx, %rsi
	movq	%rax, %rdi
	call	_ZN3glm6detailmlIfLNS_9precisionE0EEENS0_5tvec3IT_XT0_EEERKS5_RKS4_
	movq	-104(%rbp), %rax
	leaq	-32(%rbp), %rdx
	movq	%rdx, %rsi
	movq	%rax, %rdi
	call	_ZN3glm6detail5tvec3IfLNS_9precisionE0EEmIIfEERS3_RKNS1_IT_LS2_0EEE
.L150:
	.loc 16 108 0
	movq	-104(%rbp), %rax
	movq	56(%rax), %rax
	movl	$76, %esi
	movq	%rax, %rdi
	call	glfwGetKey
	cmpl	$1, %eax
	sete	%al
	testb	%al, %al
	je	.L133
	.loc 16 109 0
	movq	-104(%rbp), %rax
	movzbl	64(%rax), %eax
	xorl	$1, %eax
	movl	%eax, %edx
	movq	-104(%rbp), %rax
	movb	%dl, 64(%rax)
.L133:
.LBE30:
	.loc 16 111 0
	addq	$120, %rsp
	popq	%rbx
	popq	%rbp
	.cfi_def_cfa 7, 8
	ret
	.cfi_endproc
.LFE3391:
	.size	_ZN4Util8FloatCam6updateEf, .-_ZN4Util8FloatCam6updateEf
	.align 2
	.globl	_ZN4Util8FloatCam5getTfEv
	.type	_ZN4Util8FloatCam5getTfEv, @function
_ZN4Util8FloatCam5getTfEv:
.LFB3392:
	.loc 16 113 0
	.cfi_startproc
	pushq	%rbp
	.cfi_def_cfa_offset 16
	.cfi_offset 6, -16
	movq	%rsp, %rbp
	.cfi_def_cfa_register 6
	subq	$64, %rsp
	movq	%rdi, -56(%rbp)
	movq	%rsi, -64(%rbp)
	.loc 16 118 0
	movl	$0, -36(%rbp)
	movl	$1, -40(%rbp)
	movl	$0, -44(%rbp)
	leaq	-36(%rbp), %rcx
	leaq	-40(%rbp), %rdx
	leaq	-44(%rbp), %rsi
	leaq	-16(%rbp), %rax
	movq	%rax, %rdi
	call	_ZN3glm6detail5tvec3IfLNS_9precisionE0EEC1IiiiEERKT_RKT0_RKT1_
	.loc 16 116 0
	movq	-64(%rbp), %rax
	leaq	12(%rax), %rdx
	movq	-64(%rbp), %rcx
	leaq	-32(%rbp), %rax
	movq	%rcx, %rsi
	movq	%rax, %rdi
	call	_ZN3glm6detailplIfLNS_9precisionE0EEENS0_5tvec3IT_XT0_EEERKS5_S7_
	.loc 16 118 0
	movq	-64(%rbp), %rsi
	movq	-56(%rbp), %rax
	leaq	-16(%rbp), %rcx
	leaq	-32(%rbp), %rdx
	movq	%rax, %rdi
	call	_ZN3glm6lookAtIfLNS_9precisionE0EEENS_6detail7tmat4x4IT_XT0_EEERKNS2_5tvec3IS4_XT0_EEES9_S9_
	.loc 16 119 0
	movq	-56(%rbp), %rax
	leave
	.cfi_def_cfa 7, 8
	ret
	.cfi_endproc
.LFE3392:
	.size	_ZN4Util8FloatCam5getTfEv, .-_ZN4Util8FloatCam5getTfEv
	.section	.text._ZN5Model5Panel20Mat4_Uniform_WrapperC2Ev,"axG",@progbits,_ZN5Model5Panel20Mat4_Uniform_WrapperC5Ev,comdat
	.align 2
	.weak	_ZN5Model5Panel20Mat4_Uniform_WrapperC2Ev
	.type	_ZN5Model5Panel20Mat4_Uniform_WrapperC2Ev, @function
_ZN5Model5Panel20Mat4_Uniform_WrapperC2Ev:
.LFB3395:
	.file 17 "/home/joe/Github_Repos/CustomLibs/GL_Utils/Model/Panel.h"
	.loc 17 42 0
	.cfi_startproc
	pushq	%rbp
	.cfi_def_cfa_offset 16
	.cfi_offset 6, -16
	movq	%rsp, %rbp
	.cfi_def_cfa_register 6
	subq	$16, %rsp
	movq	%rdi, -8(%rbp)
.LBB31:
	.loc 17 42 0
	movq	-8(%rbp), %rax
	movb	$0, 4(%rax)
	movq	-8(%rbp), %rax
	addq	$8, %rax
	movq	%rax, %rdi
	call	_ZN3glm6detail7tmat4x4IfLNS_9precisionE0EEC1Ev
.LBE31:
	leave
	.cfi_def_cfa 7, 8
	ret
	.cfi_endproc
.LFE3395:
	.size	_ZN5Model5Panel20Mat4_Uniform_WrapperC2Ev, .-_ZN5Model5Panel20Mat4_Uniform_WrapperC2Ev
	.weak	_ZN5Model5Panel20Mat4_Uniform_WrapperC1Ev
	.set	_ZN5Model5Panel20Mat4_Uniform_WrapperC1Ev,_ZN5Model5Panel20Mat4_Uniform_WrapperC2Ev
	.section	.text._ZN5Model5Panel20Vec4_Uniform_WrapperC2Ev,"axG",@progbits,_ZN5Model5Panel20Vec4_Uniform_WrapperC5Ev,comdat
	.align 2
	.weak	_ZN5Model5Panel20Vec4_Uniform_WrapperC2Ev
	.type	_ZN5Model5Panel20Vec4_Uniform_WrapperC2Ev, @function
_ZN5Model5Panel20Vec4_Uniform_WrapperC2Ev:
.LFB3398:
	.loc 17 37 0
	.cfi_startproc
	pushq	%rbp
	.cfi_def_cfa_offset 16
	.cfi_offset 6, -16
	movq	%rsp, %rbp
	.cfi_def_cfa_register 6
	subq	$16, %rsp
	movq	%rdi, -8(%rbp)
.LBB32:
	.loc 17 37 0
	movq	-8(%rbp), %rax
	movb	$0, 4(%rax)
	movq	-8(%rbp), %rax
	addq	$8, %rax
	movq	%rax, %rdi
	call	_ZN3glm6detail5tvec4IfLNS_9precisionE0EEC1Ev
.LBE32:
	leave
	.cfi_def_cfa 7, 8
	ret
	.cfi_endproc
.LFE3398:
	.size	_ZN5Model5Panel20Vec4_Uniform_WrapperC2Ev, .-_ZN5Model5Panel20Vec4_Uniform_WrapperC2Ev
	.weak	_ZN5Model5Panel20Vec4_Uniform_WrapperC1Ev
	.set	_ZN5Model5Panel20Vec4_Uniform_WrapperC1Ev,_ZN5Model5Panel20Vec4_Uniform_WrapperC2Ev
	.section	.text._ZN5Model5PanelC2Ev,"axG",@progbits,_ZN5Model5PanelC5Ev,comdat
	.align 2
	.weak	_ZN5Model5PanelC2Ev
	.type	_ZN5Model5PanelC2Ev, @function
_ZN5Model5PanelC2Ev:
.LFB3400:
	.loc 17 77 0
	.cfi_startproc
	pushq	%rbp
	.cfi_def_cfa_offset 16
	.cfi_offset 6, -16
	movq	%rsp, %rbp
	.cfi_def_cfa_register 6
	pushq	%r12
	pushq	%rbx
	subq	$16, %rsp
	.cfi_offset 12, -24
	.cfi_offset 3, -32
	movq	%rdi, -24(%rbp)
.LBB33:
	.loc 17 77 0
	movq	-24(%rbp), %rax
	movq	%rax, %rdi
	call	_ZN4Util17VertexArrayObjectC1Ev
	movq	-24(%rbp), %rax
	addq	$4, %rax
	movq	%rax, %rdi
	call	_ZN4Util18VertexBufferObjectC1Ev
	movq	-24(%rbp), %rax
	addq	$24, %rax
	movq	%rax, %rdi
	call	_ZN4Util18VertexBufferObjectC1Ev
	movq	-24(%rbp), %rax
	addq	$44, %rax
	movq	%rax, %rdi
	call	_ZN4Util6ShaderC1Ev
	movq	-24(%rbp), %rax
	addq	$56, %rax
	movq	%rax, %rdi
	call	_ZN4Util7TextureC1Ev
	movq	-24(%rbp), %rax
	addq	$68, %rax
	movl	$2, %ebx
	movq	%rax, %r12
	jmp	.L157
.L158:
	.loc 17 77 0 is_stmt 0 discriminator 2
	movq	%r12, %rdi
	call	_ZN5Model5Panel20Mat4_Uniform_WrapperC1Ev
	addq	$72, %r12
	subq	$1, %rbx
.L157:
	.loc 17 77 0 discriminator 1
	cmpq	$-1, %rbx
	jne	.L158
	.loc 17 77 0 discriminator 3
	movq	-24(%rbp), %rax
	addq	$284, %rax
	movl	$2, %ebx
	movq	%rax, %r12
	jmp	.L159
.L160:
	.loc 17 77 0 discriminator 5
	movq	%r12, %rdi
	call	_ZN5Model5Panel20Vec4_Uniform_WrapperC1Ev
	addq	$24, %r12
	subq	$1, %rbx
.L159:
	.loc 17 77 0 discriminator 4
	cmpq	$-1, %rbx
	jne	.L160
	.loc 17 77 0 discriminator 6
	movq	-24(%rbp), %rax
	addq	$356, %rax
	movq	%rax, %rdi
	call	_ZN3glm6detail7tmat4x4IfLNS_9precisionE0EEC1Ev
	movq	-24(%rbp), %rax
	addq	$420, %rax
	movq	%rax, %rdi
	call	_ZN3glm6detail7tmat4x4IfLNS_9precisionE0EEC1Ev
	movq	-24(%rbp), %rax
	addq	$484, %rax
	movq	%rax, %rdi
	call	_ZN3glm6detail7tmat4x4IfLNS_9precisionE0EEC1Ev
	movq	-24(%rbp), %rax
	addq	$548, %rax
	movq	%rax, %rdi
	call	_ZN3glm6detail7tmat4x4IfLNS_9precisionE0EEC1Ev
	movq	-24(%rbp), %rax
	addq	$612, %rax
	movq	%rax, %rdi
	call	_ZN3glm6detail7tmat4x4IfLNS_9precisionE0EEC1Ev
	movq	-24(%rbp), %rdx
	movl	.LC25(%rip), %eax
	movl	%eax, 676(%rdx)
	movq	-24(%rbp), %rdx
	movl	.LC25(%rip), %eax
	movl	%eax, 680(%rdx)
	movq	-24(%rbp), %rdx
	movl	.LC25(%rip), %eax
	movl	%eax, 684(%rdx)
	movq	-24(%rbp), %rdx
	movl	.LC30(%rip), %eax
	movl	%eax, 688(%rdx)
	movq	-24(%rbp), %rdx
	movl	.LC30(%rip), %eax
	movl	%eax, 692(%rdx)
	movq	-24(%rbp), %rdx
	movl	.LC25(%rip), %eax
	movl	%eax, 696(%rdx)
	movq	-24(%rbp), %rdx
	movl	.LC31(%rip), %eax
	movl	%eax, 700(%rdx)
	movq	-24(%rbp), %rdx
	movl	.LC30(%rip), %eax
	movl	%eax, 704(%rdx)
	movq	-24(%rbp), %rdx
	movl	.LC25(%rip), %eax
	movl	%eax, 708(%rdx)
	movq	-24(%rbp), %rdx
	movl	.LC31(%rip), %eax
	movl	%eax, 712(%rdx)
	movq	-24(%rbp), %rdx
	movl	.LC31(%rip), %eax
	movl	%eax, 716(%rdx)
	movq	-24(%rbp), %rdx
	movl	.LC25(%rip), %eax
	movl	%eax, 720(%rdx)
	movq	-24(%rbp), %rdx
	movl	.LC30(%rip), %eax
	movl	%eax, 724(%rdx)
	movq	-24(%rbp), %rdx
	movl	.LC30(%rip), %eax
	movl	%eax, 728(%rdx)
	movq	-24(%rbp), %rdx
	movl	.LC25(%rip), %eax
	movl	%eax, 732(%rdx)
	movq	-24(%rbp), %rdx
	movl	.LC31(%rip), %eax
	movl	%eax, 736(%rdx)
	movq	-24(%rbp), %rdx
	movl	.LC31(%rip), %eax
	movl	%eax, 740(%rdx)
	movq	-24(%rbp), %rdx
	movl	.LC25(%rip), %eax
	movl	%eax, 744(%rdx)
	movq	-24(%rbp), %rdx
	movl	.LC30(%rip), %eax
	movl	%eax, 748(%rdx)
	movq	-24(%rbp), %rdx
	movl	.LC31(%rip), %eax
	movl	%eax, 752(%rdx)
	movq	-24(%rbp), %rdx
	movl	.LC25(%rip), %eax
	movl	%eax, 756(%rdx)
	movq	-24(%rbp), %rdx
	movl	.LC25(%rip), %eax
	movl	%eax, 760(%rdx)
	movq	-24(%rbp), %rdx
	movl	.LC25(%rip), %eax
	movl	%eax, 764(%rdx)
	movq	-24(%rbp), %rdx
	movl	.LC1(%rip), %eax
	movl	%eax, 768(%rdx)
	movq	-24(%rbp), %rdx
	movl	.LC25(%rip), %eax
	movl	%eax, 772(%rdx)
	movq	-24(%rbp), %rdx
	movl	.LC1(%rip), %eax
	movl	%eax, 776(%rdx)
	movq	-24(%rbp), %rdx
	movl	.LC1(%rip), %eax
	movl	%eax, 780(%rdx)
	movq	-24(%rbp), %rdx
	movl	.LC25(%rip), %eax
	movl	%eax, 784(%rdx)
	movq	-24(%rbp), %rdx
	movl	.LC25(%rip), %eax
	movl	%eax, 788(%rdx)
	movq	-24(%rbp), %rdx
	movl	.LC1(%rip), %eax
	movl	%eax, 792(%rdx)
	movq	-24(%rbp), %rdx
	movl	.LC1(%rip), %eax
	movl	%eax, 796(%rdx)
	movq	-24(%rbp), %rdx
	movl	.LC25(%rip), %eax
	movl	%eax, 800(%rdx)
	movq	-24(%rbp), %rdx
	movl	.LC1(%rip), %eax
	movl	%eax, 804(%rdx)
.LBE33:
	addq	$16, %rsp
	popq	%rbx
	popq	%r12
	popq	%rbp
	.cfi_def_cfa 7, 8
	ret
	.cfi_endproc
.LFE3400:
	.size	_ZN5Model5PanelC2Ev, .-_ZN5Model5PanelC2Ev
	.weak	_ZN5Model5PanelC1Ev
	.set	_ZN5Model5PanelC1Ev,_ZN5Model5PanelC2Ev
	.section	.text._ZN5Model5Panel17setViewProjectionEN3glm6detail7tmat4x4IfLNS1_9precisionE0EEES5_,"axG",@progbits,_ZN5Model5Panel17setViewProjectionEN3glm6detail7tmat4x4IfLNS1_9precisionE0EEES5_,comdat
	.align 2
	.weak	_ZN5Model5Panel17setViewProjectionEN3glm6detail7tmat4x4IfLNS1_9precisionE0EEES5_
	.type	_ZN5Model5Panel17setViewProjectionEN3glm6detail7tmat4x4IfLNS1_9precisionE0EEES5_, @function
_ZN5Model5Panel17setViewProjectionEN3glm6detail7tmat4x4IfLNS1_9precisionE0EEES5_:
.LFB3404:
	.loc 17 88 0 is_stmt 1
	.cfi_startproc
	pushq	%rbp
	.cfi_def_cfa_offset 16
	.cfi_offset 6, -16
	movq	%rsp, %rbp
	.cfi_def_cfa_register 6
	subq	$32, %rsp
	movq	%rdi, -8(%rbp)
	movq	%rsi, -16(%rbp)
	movq	%rdx, -24(%rbp)
	.loc 17 89 0
	movq	-8(%rbp), %rax
	leaq	548(%rax), %rdx
	movq	-16(%rbp), %rax
	movq	%rax, %rsi
	movq	%rdx, %rdi
	call	_ZN3glm6detail7tmat4x4IfLNS_9precisionE0EEaSERKS3_
	.loc 17 90 0
	movq	-8(%rbp), %rax
	leaq	612(%rax), %rdx
	movq	-24(%rbp), %rax
	movq	%rax, %rsi
	movq	%rdx, %rdi
	call	_ZN3glm6detail7tmat4x4IfLNS_9precisionE0EEaSERKS3_
	.loc 17 91 0
	leave
	.cfi_def_cfa 7, 8
	ret
	.cfi_endproc
.LFE3404:
	.size	_ZN5Model5Panel17setViewProjectionEN3glm6detail7tmat4x4IfLNS1_9precisionE0EEES5_, .-_ZN5Model5Panel17setViewProjectionEN3glm6detail7tmat4x4IfLNS1_9precisionE0EEES5_
	.section	.text._ZN5Model5Panel5getTfEv,"axG",@progbits,_ZN5Model5Panel5getTfEv,comdat
	.align 2
	.weak	_ZN5Model5Panel5getTfEv
	.type	_ZN5Model5Panel5getTfEv, @function
_ZN5Model5Panel5getTfEv:
.LFB3405:
	.loc 17 93 0
	.cfi_startproc
	pushq	%rbp
	.cfi_def_cfa_offset 16
	.cfi_offset 6, -16
	movq	%rsp, %rbp
	.cfi_def_cfa_register 6
	pushq	%rbx
	subq	$88, %rsp
	.cfi_offset 3, -24
	movq	%rdi, -88(%rbp)
	movq	%rsi, -96(%rbp)
	.loc 17 94 0
	movq	-96(%rbp), %rax
	leaq	356(%rax), %rbx
	movq	-96(%rbp), %rax
	leaq	420(%rax), %rdx
	movq	-96(%rbp), %rax
	leaq	484(%rax), %rcx
	leaq	-80(%rbp), %rax
	movq	%rcx, %rsi
	movq	%rax, %rdi
	call	_ZN3glm6detailmlIfLNS_9precisionE0EEENS0_7tmat4x4IT_XT0_EEERKS5_S7_
	movq	-88(%rbp), %rax
	leaq	-80(%rbp), %rcx
	movq	%rbx, %rdx
	movq	%rcx, %rsi
	movq	%rax, %rdi
	call	_ZN3glm6detailmlIfLNS_9precisionE0EEENS0_7tmat4x4IT_XT0_EEERKS5_S7_
	.loc 17 95 0
	movq	-88(%rbp), %rax
	addq	$88, %rsp
	popq	%rbx
	popq	%rbp
	.cfi_def_cfa 7, 8
	ret
	.cfi_endproc
.LFE3405:
	.size	_ZN5Model5Panel5getTfEv, .-_ZN5Model5Panel5getTfEv
	.section	.text._ZN5Model5Panel14setVec4UniformEN3glm6detail5tvec4IfLNS1_9precisionE0EEEi,"axG",@progbits,_ZN5Model5Panel14setVec4UniformEN3glm6detail5tvec4IfLNS1_9precisionE0EEEi,comdat
	.align 2
	.weak	_ZN5Model5Panel14setVec4UniformEN3glm6detail5tvec4IfLNS1_9precisionE0EEEi
	.type	_ZN5Model5Panel14setVec4UniformEN3glm6detail5tvec4IfLNS1_9precisionE0EEEi, @function
_ZN5Model5Panel14setVec4UniformEN3glm6detail5tvec4IfLNS1_9precisionE0EEEi:
.LFB3406:
	.loc 17 97 0
	.cfi_startproc
	pushq	%rbp
	.cfi_def_cfa_offset 16
	.cfi_offset 6, -16
	movq	%rsp, %rbp
	.cfi_def_cfa_register 6
	subq	$32, %rsp
	movq	%rdi, -8(%rbp)
	movq	%rsi, -16(%rbp)
	movl	%edx, -20(%rbp)
	.loc 17 98 0
	movl	-20(%rbp), %eax
	movslq	%eax, %rdx
	movq	%rdx, %rax
	addq	%rax, %rax
	addq	%rdx, %rax
	salq	$3, %rax
	leaq	272(%rax), %rdx
	movq	-8(%rbp), %rax
	addq	%rdx, %rax
	leaq	20(%rax), %rdx
	movq	-16(%rbp), %rax
	movq	%rax, %rsi
	movq	%rdx, %rdi
	call	_ZN3glm6detail5tvec4IfLNS_9precisionE0EEaSERKS3_
	.loc 17 99 0
	movq	-8(%rbp), %rcx
	movl	-20(%rbp), %eax
	movslq	%eax, %rdx
	movq	%rdx, %rax
	addq	%rax, %rax
	addq	%rdx, %rax
	salq	$3, %rax
	addq	%rcx, %rax
	addq	$272, %rax
	movb	$1, 16(%rax)
	.loc 17 100 0
	leave
	.cfi_def_cfa 7, 8
	ret
	.cfi_endproc
.LFE3406:
	.size	_ZN5Model5Panel14setVec4UniformEN3glm6detail5tvec4IfLNS1_9precisionE0EEEi, .-_ZN5Model5Panel14setVec4UniformEN3glm6detail5tvec4IfLNS1_9precisionE0EEEi
	.text
	.align 2
	.globl	_ZN5Model5PanelC2Eff
	.type	_ZN5Model5PanelC2Eff, @function
_ZN5Model5PanelC2Eff:
.LFB3409:
	.loc 17 118 0
	.cfi_startproc
	pushq	%rbp
	.cfi_def_cfa_offset 16
	.cfi_offset 6, -16
	movq	%rsp, %rbp
	.cfi_def_cfa_register 6
	pushq	%r12
	pushq	%rbx
	subq	$32, %rsp
	.cfi_offset 12, -24
	.cfi_offset 3, -32
	movq	%rdi, -24(%rbp)
	movss	%xmm0, -28(%rbp)
	movss	%xmm1, -32(%rbp)
.LBB34:
	.loc 17 118 0
	movq	-24(%rbp), %rax
	movq	%rax, %rdi
	call	_ZN4Util17VertexArrayObjectC1Ev
	movq	-24(%rbp), %rax
	addq	$4, %rax
	movq	%rax, %rdi
	call	_ZN4Util18VertexBufferObjectC1Ev
	movq	-24(%rbp), %rax
	addq	$24, %rax
	movq	%rax, %rdi
	call	_ZN4Util18VertexBufferObjectC1Ev
	movq	-24(%rbp), %rax
	addq	$44, %rax
	movq	%rax, %rdi
	call	_ZN4Util6ShaderC1Ev
	movq	-24(%rbp), %rax
	addq	$56, %rax
	movq	%rax, %rdi
	call	_ZN4Util7TextureC1Ev
	movq	-24(%rbp), %rax
	addq	$68, %rax
	movl	$2, %ebx
	movq	%rax, %r12
	jmp	.L166
.L167:
	.loc 17 118 0 is_stmt 0 discriminator 2
	movq	%r12, %rdi
	call	_ZN5Model5Panel20Mat4_Uniform_WrapperC1Ev
	addq	$72, %r12
	subq	$1, %rbx
.L166:
	.loc 17 118 0 discriminator 1
	cmpq	$-1, %rbx
	jne	.L167
	.loc 17 118 0 discriminator 3
	movq	-24(%rbp), %rax
	addq	$284, %rax
	movl	$2, %ebx
	movq	%rax, %r12
	jmp	.L168
.L169:
	.loc 17 118 0 discriminator 5
	movq	%r12, %rdi
	call	_ZN5Model5Panel20Vec4_Uniform_WrapperC1Ev
	addq	$24, %r12
	subq	$1, %rbx
.L168:
	.loc 17 118 0 discriminator 4
	cmpq	$-1, %rbx
	jne	.L169
	.loc 17 118 0 discriminator 6
	movq	-24(%rbp), %rax
	addq	$356, %rax
	movq	%rax, %rdi
	call	_ZN3glm6detail7tmat4x4IfLNS_9precisionE0EEC1Ev
	movq	-24(%rbp), %rax
	addq	$420, %rax
	movq	%rax, %rdi
	call	_ZN3glm6detail7tmat4x4IfLNS_9precisionE0EEC1Ev
	movq	-24(%rbp), %rax
	addq	$484, %rax
	movq	%rax, %rdi
	call	_ZN3glm6detail7tmat4x4IfLNS_9precisionE0EEC1Ev
	movq	-24(%rbp), %rax
	addq	$548, %rax
	movq	%rax, %rdi
	call	_ZN3glm6detail7tmat4x4IfLNS_9precisionE0EEC1Ev
	movq	-24(%rbp), %rax
	addq	$612, %rax
	movq	%rax, %rdi
	call	_ZN3glm6detail7tmat4x4IfLNS_9precisionE0EEC1Ev
	movq	-24(%rbp), %rdx
	movl	.LC25(%rip), %eax
	movl	%eax, 676(%rdx)
	movq	-24(%rbp), %rdx
	movl	.LC25(%rip), %eax
	movl	%eax, 680(%rdx)
	movq	-24(%rbp), %rdx
	movl	.LC25(%rip), %eax
	movl	%eax, 684(%rdx)
	movq	-24(%rbp), %rdx
	movl	.LC30(%rip), %eax
	movl	%eax, 688(%rdx)
	movq	-24(%rbp), %rdx
	movl	.LC30(%rip), %eax
	movl	%eax, 692(%rdx)
	movq	-24(%rbp), %rdx
	movl	.LC25(%rip), %eax
	movl	%eax, 696(%rdx)
	movq	-24(%rbp), %rdx
	movl	.LC31(%rip), %eax
	movl	%eax, 700(%rdx)
	movq	-24(%rbp), %rdx
	movl	.LC30(%rip), %eax
	movl	%eax, 704(%rdx)
	movq	-24(%rbp), %rdx
	movl	.LC25(%rip), %eax
	movl	%eax, 708(%rdx)
	movq	-24(%rbp), %rdx
	movl	.LC31(%rip), %eax
	movl	%eax, 712(%rdx)
	movq	-24(%rbp), %rdx
	movl	.LC31(%rip), %eax
	movl	%eax, 716(%rdx)
	movq	-24(%rbp), %rdx
	movl	.LC25(%rip), %eax
	movl	%eax, 720(%rdx)
	movq	-24(%rbp), %rdx
	movl	.LC30(%rip), %eax
	movl	%eax, 724(%rdx)
	movq	-24(%rbp), %rdx
	movl	.LC30(%rip), %eax
	movl	%eax, 728(%rdx)
	movq	-24(%rbp), %rdx
	movl	.LC25(%rip), %eax
	movl	%eax, 732(%rdx)
	movq	-24(%rbp), %rdx
	movl	.LC31(%rip), %eax
	movl	%eax, 736(%rdx)
	movq	-24(%rbp), %rdx
	movl	.LC31(%rip), %eax
	movl	%eax, 740(%rdx)
	movq	-24(%rbp), %rdx
	movl	.LC25(%rip), %eax
	movl	%eax, 744(%rdx)
	movq	-24(%rbp), %rdx
	movl	.LC30(%rip), %eax
	movl	%eax, 748(%rdx)
	movq	-24(%rbp), %rdx
	movl	.LC31(%rip), %eax
	movl	%eax, 752(%rdx)
	movq	-24(%rbp), %rdx
	movl	.LC25(%rip), %eax
	movl	%eax, 756(%rdx)
	movq	-24(%rbp), %rdx
	movl	.LC25(%rip), %eax
	movl	%eax, 760(%rdx)
	movq	-24(%rbp), %rdx
	movl	.LC25(%rip), %eax
	movl	%eax, 764(%rdx)
	movq	-24(%rbp), %rdx
	movl	.LC1(%rip), %eax
	movl	%eax, 768(%rdx)
	movq	-24(%rbp), %rdx
	movl	.LC25(%rip), %eax
	movl	%eax, 772(%rdx)
	movq	-24(%rbp), %rdx
	movl	.LC1(%rip), %eax
	movl	%eax, 776(%rdx)
	movq	-24(%rbp), %rdx
	movl	.LC1(%rip), %eax
	movl	%eax, 780(%rdx)
	movq	-24(%rbp), %rdx
	movl	.LC25(%rip), %eax
	movl	%eax, 784(%rdx)
	movq	-24(%rbp), %rdx
	movl	.LC25(%rip), %eax
	movl	%eax, 788(%rdx)
	movq	-24(%rbp), %rdx
	movl	.LC1(%rip), %eax
	movl	%eax, 792(%rdx)
	movq	-24(%rbp), %rdx
	movl	.LC1(%rip), %eax
	movl	%eax, 796(%rdx)
	movq	-24(%rbp), %rdx
	movl	.LC25(%rip), %eax
	movl	%eax, 800(%rdx)
	movq	-24(%rbp), %rdx
	movl	.LC1(%rip), %eax
	movl	%eax, 804(%rdx)
	.loc 17 119 0 is_stmt 1 discriminator 6
	movl	-32(%rbp), %edx
	movl	-28(%rbp), %eax
	movq	-24(%rbp), %rcx
	movss	.LC1(%rip), %xmm2
	movl	%edx, -36(%rbp)
	movss	-36(%rbp), %xmm1
	movl	%eax, -36(%rbp)
	movss	-36(%rbp), %xmm0
	movq	%rcx, %rdi
	call	_ZN5Model5Panel8setScaleEfff
.LBE34:
	.loc 17 120 0 discriminator 6
	addq	$32, %rsp
	popq	%rbx
	popq	%r12
	popq	%rbp
	.cfi_def_cfa 7, 8
	ret
	.cfi_endproc
.LFE3409:
	.size	_ZN5Model5PanelC2Eff, .-_ZN5Model5PanelC2Eff
	.globl	_ZN5Model5PanelC1Eff
	.set	_ZN5Model5PanelC1Eff,_ZN5Model5PanelC2Eff
	.align 2
	.globl	_ZN5Model5Panel16setUVCoordinatesEPf
	.type	_ZN5Model5Panel16setUVCoordinatesEPf, @function
_ZN5Model5Panel16setUVCoordinatesEPf:
.LFB3411:
	.loc 17 122 0
	.cfi_startproc
	pushq	%rbp
	.cfi_def_cfa_offset 16
	.cfi_offset 6, -16
	movq	%rsp, %rbp
	.cfi_def_cfa_register 6
	movq	%rdi, -8(%rbp)
	movq	%rsi, -16(%rbp)
	.loc 17 123 0
	movq	-16(%rbp), %rax
	movl	(%rax), %eax
	movq	-8(%rbp), %rdx
	movl	%eax, 760(%rdx)
	.loc 17 124 0
	movq	-16(%rbp), %rax
	movl	4(%rax), %eax
	movq	-8(%rbp), %rdx
	movl	%eax, 764(%rdx)
	.loc 17 125 0
	movq	-16(%rbp), %rax
	movl	(%rax), %eax
	movq	-8(%rbp), %rdx
	movl	%eax, 784(%rdx)
	.loc 17 126 0
	movq	-16(%rbp), %rax
	movl	4(%rax), %eax
	movq	-8(%rbp), %rdx
	movl	%eax, 788(%rdx)
	.loc 17 127 0
	movq	-16(%rbp), %rax
	movl	16(%rax), %eax
	movq	-8(%rbp), %rdx
	movl	%eax, 776(%rdx)
	.loc 17 128 0
	movq	-16(%rbp), %rax
	movl	20(%rax), %eax
	movq	-8(%rbp), %rdx
	movl	%eax, 780(%rdx)
	.loc 17 129 0
	movq	-16(%rbp), %rax
	movl	16(%rax), %eax
	movq	-8(%rbp), %rdx
	movl	%eax, 792(%rdx)
	.loc 17 130 0
	movq	-16(%rbp), %rax
	movl	20(%rax), %eax
	movq	-8(%rbp), %rdx
	movl	%eax, 796(%rdx)
	.loc 17 131 0
	movq	-16(%rbp), %rax
	movl	24(%rax), %eax
	movq	-8(%rbp), %rdx
	movl	%eax, 800(%rdx)
	.loc 17 132 0
	movq	-16(%rbp), %rax
	movl	28(%rax), %eax
	movq	-8(%rbp), %rdx
	movl	%eax, 804(%rdx)
	.loc 17 133 0
	movq	-16(%rbp), %rax
	movl	8(%rax), %eax
	movq	-8(%rbp), %rdx
	movl	%eax, 768(%rdx)
	.loc 17 134 0
	movq	-16(%rbp), %rax
	movl	12(%rax), %eax
	movq	-8(%rbp), %rdx
	movl	%eax, 772(%rdx)
	.loc 17 135 0
	popq	%rbp
	.cfi_def_cfa 7, 8
	ret
	.cfi_endproc
.LFE3411:
	.size	_ZN5Model5Panel16setUVCoordinatesEPf, .-_ZN5Model5Panel16setUVCoordinatesEPf
	.align 2
	.globl	_ZN5Model5Panel8finalizeEv
	.type	_ZN5Model5Panel8finalizeEv, @function
_ZN5Model5Panel8finalizeEv:
.LFB3412:
	.loc 17 137 0
	.cfi_startproc
	pushq	%rbp
	.cfi_def_cfa_offset 16
	.cfi_offset 6, -16
	movq	%rsp, %rbp
	.cfi_def_cfa_register 6
	subq	$16, %rsp
	movq	%rdi, -8(%rbp)
	.loc 17 138 0
	movq	-8(%rbp), %rax
	movq	%rax, %rdi
	call	_ZN4Util17VertexArrayObject4bindEv
	.loc 17 140 0
	movq	-8(%rbp), %rax
	addq	$4, %rax
	movq	%rax, %rdi
	call	_ZN4Util18VertexBufferObject4bindEv
	.loc 17 141 0
	movl	$4, %edx
	movl	%edx, %eax
	sall	$3, %eax
	addl	%edx, %eax
	addl	%eax, %eax
	movq	-8(%rbp), %rdx
	leaq	688(%rdx), %rsi
	movq	-8(%rbp), %rdx
	leaq	4(%rdx), %rcx
	movl	%eax, %edx
	movq	%rcx, %rdi
	call	_ZN4Util18VertexBufferObject10bufferDataEPKvi
	.loc 17 142 0
	movq	-8(%rbp), %rax
	addq	$4, %rax
	movl	$0, %r8d
	movl	$5126, %ecx
	movl	$3, %edx
	movl	$0, %esi
	movq	%rax, %rdi
	call	_ZN4Util18VertexBufferObject16setAttribPtrDataEiiih
	.loc 17 145 0
	movq	-8(%rbp), %rax
	addq	$24, %rax
	movq	%rax, %rdi
	call	_ZN4Util18VertexBufferObject4bindEv
	.loc 17 146 0
	movl	$4, %edx
	movl	%edx, %eax
	addl	%eax, %eax
	addl	%edx, %eax
	sall	$2, %eax
	movq	-8(%rbp), %rdx
	leaq	760(%rdx), %rsi
	movq	-8(%rbp), %rdx
	leaq	24(%rdx), %rcx
	movl	%eax, %edx
	movq	%rcx, %rdi
	call	_ZN4Util18VertexBufferObject10bufferDataEPKvi
	.loc 17 147 0
	movq	-8(%rbp), %rax
	addq	$24, %rax
	movl	$0, %r8d
	movl	$5126, %ecx
	movl	$2, %edx
	movl	$2, %esi
	movq	%rax, %rdi
	call	_ZN4Util18VertexBufferObject16setAttribPtrDataEiiih
	.loc 17 148 0
	leave
	.cfi_def_cfa 7, 8
	ret
	.cfi_endproc
.LFE3412:
	.size	_ZN5Model5Panel8finalizeEv, .-_ZN5Model5Panel8finalizeEv
	.align 2
	.globl	_ZN5Model5Panel14setTranslationEfff
	.type	_ZN5Model5Panel14setTranslationEfff, @function
_ZN5Model5Panel14setTranslationEfff:
.LFB3413:
	.loc 17 150 0
	.cfi_startproc
	pushq	%rbp
	.cfi_def_cfa_offset 16
	.cfi_offset 6, -16
	movq	%rsp, %rbp
	.cfi_def_cfa_register 6
	subq	$176, %rsp
	movq	%rdi, -152(%rbp)
	movss	%xmm0, -156(%rbp)
	movss	%xmm1, -160(%rbp)
	movss	%xmm2, -164(%rbp)
.LBB35:
	.loc 17 151 0
	leaq	-164(%rbp), %rcx
	leaq	-160(%rbp), %rdx
	leaq	-156(%rbp), %rsi
	leaq	-144(%rbp), %rax
	movq	%rax, %rdi
	call	_ZN3glm6detail5tvec3IfLNS_9precisionE0EEC1ERKfS5_S5_
	.loc 17 152 0
	leaq	-128(%rbp), %rax
	movq	%rax, %rdi
	call	_ZN3glm6detail7tmat4x4IfLNS_9precisionE0EEC1Ev
	leaq	-64(%rbp), %rax
	leaq	-144(%rbp), %rdx
	leaq	-128(%rbp), %rcx
	movq	%rcx, %rsi
	movq	%rax, %rdi
	call	_ZN3glm9translateIfLNS_9precisionE0EEENS_6detail7tmat4x4IT_XT0_EEERKS5_RKNS2_5tvec3IS4_XT0_EEE
	movq	-152(%rbp), %rax
	leaq	484(%rax), %rdx
	leaq	-64(%rbp), %rax
	movq	%rax, %rsi
	movq	%rdx, %rdi
	call	_ZN3glm6detail7tmat4x4IfLNS_9precisionE0EEaSERKS3_
.LBE35:
	.loc 17 153 0
	leave
	.cfi_def_cfa 7, 8
	ret
	.cfi_endproc
.LFE3413:
	.size	_ZN5Model5Panel14setTranslationEfff, .-_ZN5Model5Panel14setTranslationEfff
	.align 2
	.globl	_ZN5Model5Panel8setScaleEfff
	.type	_ZN5Model5Panel8setScaleEfff, @function
_ZN5Model5Panel8setScaleEfff:
.LFB3414:
	.loc 17 155 0
	.cfi_startproc
	pushq	%rbp
	.cfi_def_cfa_offset 16
	.cfi_offset 6, -16
	movq	%rsp, %rbp
	.cfi_def_cfa_register 6
	subq	$112, %rsp
	movq	%rdi, -88(%rbp)
	movss	%xmm0, -92(%rbp)
	movss	%xmm1, -96(%rbp)
	movss	%xmm2, -100(%rbp)
	.loc 17 156 0
	leaq	-100(%rbp), %rcx
	leaq	-96(%rbp), %rdx
	leaq	-92(%rbp), %rsi
	leaq	-80(%rbp), %rax
	movq	%rax, %rdi
	call	_ZN3glm6detail5tvec3IfLNS_9precisionE0EEC1ERKfS5_S5_
	leaq	-64(%rbp), %rax
	leaq	-80(%rbp), %rdx
	movq	%rdx, %rsi
	movq	%rax, %rdi
	call	_ZN3glm5scaleIfLNS_9precisionE0EEENS_6detail7tmat4x4IT_XT0_EEERKNS2_5tvec3IS4_XT0_EEE
	movq	-88(%rbp), %rax
	leaq	356(%rax), %rdx
	leaq	-64(%rbp), %rax
	movq	%rax, %rsi
	movq	%rdx, %rdi
	call	_ZN3glm6detail7tmat4x4IfLNS_9precisionE0EEaSERKS3_
	.loc 17 157 0
	leave
	.cfi_def_cfa 7, 8
	ret
	.cfi_endproc
.LFE3414:
	.size	_ZN5Model5Panel8setScaleEfff, .-_ZN5Model5Panel8setScaleEfff
	.align 2
	.globl	_ZN5Model5Panel11setRotationEffff
	.type	_ZN5Model5Panel11setRotationEffff, @function
_ZN5Model5Panel11setRotationEffff:
.LFB3415:
	.loc 17 159 0
	.cfi_startproc
	pushq	%rbp
	.cfi_def_cfa_offset 16
	.cfi_offset 6, -16
	movq	%rsp, %rbp
	.cfi_def_cfa_register 6
	subq	$112, %rsp
	movq	%rdi, -88(%rbp)
	movss	%xmm0, -92(%rbp)
	movss	%xmm1, -96(%rbp)
	movss	%xmm2, -100(%rbp)
	movss	%xmm3, -104(%rbp)
.LBB36:
	.loc 17 160 0
	leaq	-104(%rbp), %rcx
	leaq	-100(%rbp), %rdx
	leaq	-96(%rbp), %rsi
	leaq	-80(%rbp), %rax
	movq	%rax, %rdi
	call	_ZN3glm6detail5tvec3IfLNS_9precisionE0EEC1ERKfS5_S5_
	.loc 17 161 0
	leaq	-64(%rbp), %rdx
	leaq	-80(%rbp), %rcx
	movl	-92(%rbp), %eax
	movq	%rcx, %rsi
	movl	%eax, -108(%rbp)
	movss	-108(%rbp), %xmm0
	movq	%rdx, %rdi
	call	_ZN3glm6rotateIfLNS_9precisionE0EEENS_6detail7tmat4x4IT_XT0_EEES4_RKNS2_5tvec3IS4_XT0_EEE
	movq	-88(%rbp), %rax
	leaq	420(%rax), %rdx
	leaq	-64(%rbp), %rax
	movq	%rax, %rsi
	movq	%rdx, %rdi
	call	_ZN3glm6detail7tmat4x4IfLNS_9precisionE0EEaSERKS3_
.LBE36:
	.loc 17 162 0
	leave
	.cfi_def_cfa 7, 8
	ret
	.cfi_endproc
.LFE3415:
	.size	_ZN5Model5Panel11setRotationEffff, .-_ZN5Model5Panel11setRotationEffff
	.section	.rodata
.LC32:
	.string	"MVP"
.LC33:
	.string	"TEX"
.LC34:
	.string	"mat4_extra_0"
.LC35:
	.string	"mat4_extra_1"
.LC36:
	.string	"mat4_extra_2"
.LC37:
	.string	"vec4_extra_0"
.LC38:
	.string	"vec4_extra_1"
.LC39:
	.string	"vec4_extra_2"
	.text
	.align 2
	.globl	_ZN5Model5Panel16setShaderTextureEN4Util6ShaderENS1_7TextureE
	.type	_ZN5Model5Panel16setShaderTextureEN4Util6ShaderENS1_7TextureE, @function
_ZN5Model5Panel16setShaderTextureEN4Util6ShaderENS1_7TextureE:
.LFB3416:
	.loc 17 164 0
	.cfi_startproc
	.cfi_personality 0x3,__gxx_personality_v0
	.cfi_lsda 0x3,.LLSDA3416
	pushq	%rbp
	.cfi_def_cfa_offset 16
	.cfi_offset 6, -16
	movq	%rsp, %rbp
	.cfi_def_cfa_register 6
	pushq	%rbx
	subq	$72, %rsp
	.cfi_offset 3, -24
	movq	%rdi, -56(%rbp)
	movl	%edx, %eax
	movl	%ecx, -80(%rbp)
	movq	%rsi, -72(%rbp)
	movl	%eax, -64(%rbp)
	.loc 17 165 0
	movq	-56(%rbp), %rax
	movq	-72(%rbp), %rdx
	movq	%rdx, 44(%rax)
	movl	-64(%rbp), %edx
	movl	%edx, 52(%rax)
	.loc 17 166 0
	movq	-56(%rbp), %rax
	movl	-80(%rbp), %edx
	movl	%edx, 56(%rax)
	.loc 17 167 0
	leaq	-33(%rbp), %rax
	movq	%rax, %rdi
	call	_ZNSaIcEC1Ev
	leaq	-33(%rbp), %rdx
	leaq	-32(%rbp), %rax
	movl	$.LC32, %esi
	movq	%rax, %rdi
.LEHB35:
	call	_ZNSsC1EPKcRKSaIcE
.LEHE35:
	.loc 17 167 0 is_stmt 0 discriminator 1
	leaq	-32(%rbp), %rdx
	leaq	-72(%rbp), %rax
	movq	%rdx, %rsi
	movq	%rax, %rdi
.LEHB36:
	call	_ZN4Util6Shader18getUniformLocationESs
.LEHE36:
	movq	-56(%rbp), %rdx
	movl	%eax, 64(%rdx)
	leaq	-32(%rbp), %rax
	movq	%rax, %rdi
	call	_ZNSsD1Ev
	leaq	-33(%rbp), %rax
	movq	%rax, %rdi
	call	_ZNSaIcED1Ev
	.loc 17 168 0 is_stmt 1 discriminator 1
	leaq	-33(%rbp), %rax
	movq	%rax, %rdi
	call	_ZNSaIcEC1Ev
	leaq	-33(%rbp), %rdx
	leaq	-32(%rbp), %rax
	movl	$.LC33, %esi
	movq	%rax, %rdi
.LEHB37:
	call	_ZNSsC1EPKcRKSaIcE
.LEHE37:
	leaq	-32(%rbp), %rdx
	leaq	-72(%rbp), %rax
	movq	%rdx, %rsi
	movq	%rax, %rdi
.LEHB38:
	call	_ZN4Util6Shader18getUniformLocationESs
.LEHE38:
	movq	-56(%rbp), %rdx
	movl	%eax, 60(%rdx)
	leaq	-32(%rbp), %rax
	movq	%rax, %rdi
	call	_ZNSsD1Ev
	leaq	-33(%rbp), %rax
	movq	%rax, %rdi
	call	_ZNSaIcED1Ev
	.loc 17 170 0 discriminator 1
	leaq	-33(%rbp), %rax
	movq	%rax, %rdi
	call	_ZNSaIcEC1Ev
	leaq	-33(%rbp), %rdx
	leaq	-32(%rbp), %rax
	movl	$.LC34, %esi
	movq	%rax, %rdi
.LEHB39:
	call	_ZNSsC1EPKcRKSaIcE
.LEHE39:
	leaq	-32(%rbp), %rdx
	leaq	-72(%rbp), %rax
	movq	%rdx, %rsi
	movq	%rax, %rdi
.LEHB40:
	call	_ZN4Util6Shader18getUniformLocationESs
.LEHE40:
	movq	-56(%rbp), %rdx
	movl	%eax, 68(%rdx)
	leaq	-32(%rbp), %rax
	movq	%rax, %rdi
	call	_ZNSsD1Ev
	leaq	-33(%rbp), %rax
	movq	%rax, %rdi
	call	_ZNSaIcED1Ev
	.loc 17 171 0 discriminator 1
	leaq	-33(%rbp), %rax
	movq	%rax, %rdi
	call	_ZNSaIcEC1Ev
	leaq	-33(%rbp), %rdx
	leaq	-32(%rbp), %rax
	movl	$.LC35, %esi
	movq	%rax, %rdi
.LEHB41:
	call	_ZNSsC1EPKcRKSaIcE
.LEHE41:
	leaq	-32(%rbp), %rdx
	leaq	-72(%rbp), %rax
	movq	%rdx, %rsi
	movq	%rax, %rdi
.LEHB42:
	call	_ZN4Util6Shader18getUniformLocationESs
.LEHE42:
	movq	-56(%rbp), %rdx
	movl	%eax, 140(%rdx)
	leaq	-32(%rbp), %rax
	movq	%rax, %rdi
	call	_ZNSsD1Ev
	leaq	-33(%rbp), %rax
	movq	%rax, %rdi
	call	_ZNSaIcED1Ev
	.loc 17 172 0 discriminator 1
	leaq	-33(%rbp), %rax
	movq	%rax, %rdi
	call	_ZNSaIcEC1Ev
	leaq	-33(%rbp), %rdx
	leaq	-32(%rbp), %rax
	movl	$.LC36, %esi
	movq	%rax, %rdi
.LEHB43:
	call	_ZNSsC1EPKcRKSaIcE
.LEHE43:
	leaq	-32(%rbp), %rdx
	leaq	-72(%rbp), %rax
	movq	%rdx, %rsi
	movq	%rax, %rdi
.LEHB44:
	call	_ZN4Util6Shader18getUniformLocationESs
.LEHE44:
	movq	-56(%rbp), %rdx
	movl	%eax, 212(%rdx)
	leaq	-32(%rbp), %rax
	movq	%rax, %rdi
	call	_ZNSsD1Ev
	leaq	-33(%rbp), %rax
	movq	%rax, %rdi
	call	_ZNSaIcED1Ev
	.loc 17 174 0 discriminator 1
	leaq	-33(%rbp), %rax
	movq	%rax, %rdi
	call	_ZNSaIcEC1Ev
	leaq	-33(%rbp), %rdx
	leaq	-32(%rbp), %rax
	movl	$.LC37, %esi
	movq	%rax, %rdi
.LEHB45:
	call	_ZNSsC1EPKcRKSaIcE
.LEHE45:
	leaq	-32(%rbp), %rdx
	leaq	-72(%rbp), %rax
	movq	%rdx, %rsi
	movq	%rax, %rdi
.LEHB46:
	call	_ZN4Util6Shader18getUniformLocationESs
.LEHE46:
	movq	-56(%rbp), %rdx
	movl	%eax, 284(%rdx)
	leaq	-32(%rbp), %rax
	movq	%rax, %rdi
	call	_ZNSsD1Ev
	leaq	-33(%rbp), %rax
	movq	%rax, %rdi
	call	_ZNSaIcED1Ev
	.loc 17 175 0 discriminator 1
	leaq	-33(%rbp), %rax
	movq	%rax, %rdi
	call	_ZNSaIcEC1Ev
	leaq	-33(%rbp), %rdx
	leaq	-32(%rbp), %rax
	movl	$.LC38, %esi
	movq	%rax, %rdi
.LEHB47:
	call	_ZNSsC1EPKcRKSaIcE
.LEHE47:
	leaq	-32(%rbp), %rdx
	leaq	-72(%rbp), %rax
	movq	%rdx, %rsi
	movq	%rax, %rdi
.LEHB48:
	call	_ZN4Util6Shader18getUniformLocationESs
.LEHE48:
	movq	-56(%rbp), %rdx
	movl	%eax, 308(%rdx)
	leaq	-32(%rbp), %rax
	movq	%rax, %rdi
	call	_ZNSsD1Ev
	leaq	-33(%rbp), %rax
	movq	%rax, %rdi
	call	_ZNSaIcED1Ev
	.loc 17 176 0 discriminator 1
	leaq	-33(%rbp), %rax
	movq	%rax, %rdi
	call	_ZNSaIcEC1Ev
	leaq	-33(%rbp), %rdx
	leaq	-32(%rbp), %rax
	movl	$.LC39, %esi
	movq	%rax, %rdi
.LEHB49:
	call	_ZNSsC1EPKcRKSaIcE
.LEHE49:
	leaq	-32(%rbp), %rdx
	leaq	-72(%rbp), %rax
	movq	%rdx, %rsi
	movq	%rax, %rdi
.LEHB50:
	call	_ZN4Util6Shader18getUniformLocationESs
.LEHE50:
	movq	-56(%rbp), %rdx
	movl	%eax, 332(%rdx)
	leaq	-32(%rbp), %rax
	movq	%rax, %rdi
	call	_ZNSsD1Ev
	leaq	-33(%rbp), %rax
	movq	%rax, %rdi
	call	_ZNSaIcED1Ev
	jmp	.L208
.L193:
	movq	%rax, %rbx
	.loc 17 167 0
	leaq	-32(%rbp), %rax
	movq	%rax, %rdi
	call	_ZNSsD1Ev
	jmp	.L177
.L192:
	movq	%rax, %rbx
.L177:
	leaq	-33(%rbp), %rax
	movq	%rax, %rdi
	call	_ZNSaIcED1Ev
	movq	%rbx, %rax
	movq	%rax, %rdi
.LEHB51:
	call	_Unwind_Resume
.L195:
	movq	%rax, %rbx
	.loc 17 168 0
	leaq	-32(%rbp), %rax
	movq	%rax, %rdi
	call	_ZNSsD1Ev
	jmp	.L179
.L194:
	movq	%rax, %rbx
.L179:
	leaq	-33(%rbp), %rax
	movq	%rax, %rdi
	call	_ZNSaIcED1Ev
	movq	%rbx, %rax
	movq	%rax, %rdi
	call	_Unwind_Resume
.L197:
	movq	%rax, %rbx
	.loc 17 170 0
	leaq	-32(%rbp), %rax
	movq	%rax, %rdi
	call	_ZNSsD1Ev
	jmp	.L181
.L196:
	movq	%rax, %rbx
.L181:
	leaq	-33(%rbp), %rax
	movq	%rax, %rdi
	call	_ZNSaIcED1Ev
	movq	%rbx, %rax
	movq	%rax, %rdi
	call	_Unwind_Resume
.L199:
	movq	%rax, %rbx
	.loc 17 171 0
	leaq	-32(%rbp), %rax
	movq	%rax, %rdi
	call	_ZNSsD1Ev
	jmp	.L183
.L198:
	movq	%rax, %rbx
.L183:
	leaq	-33(%rbp), %rax
	movq	%rax, %rdi
	call	_ZNSaIcED1Ev
	movq	%rbx, %rax
	movq	%rax, %rdi
	call	_Unwind_Resume
.L201:
	movq	%rax, %rbx
	.loc 17 172 0
	leaq	-32(%rbp), %rax
	movq	%rax, %rdi
	call	_ZNSsD1Ev
	jmp	.L185
.L200:
	movq	%rax, %rbx
.L185:
	leaq	-33(%rbp), %rax
	movq	%rax, %rdi
	call	_ZNSaIcED1Ev
	movq	%rbx, %rax
	movq	%rax, %rdi
	call	_Unwind_Resume
.L203:
	movq	%rax, %rbx
	.loc 17 174 0
	leaq	-32(%rbp), %rax
	movq	%rax, %rdi
	call	_ZNSsD1Ev
	jmp	.L187
.L202:
	movq	%rax, %rbx
.L187:
	leaq	-33(%rbp), %rax
	movq	%rax, %rdi
	call	_ZNSaIcED1Ev
	movq	%rbx, %rax
	movq	%rax, %rdi
	call	_Unwind_Resume
.L205:
	movq	%rax, %rbx
	.loc 17 175 0
	leaq	-32(%rbp), %rax
	movq	%rax, %rdi
	call	_ZNSsD1Ev
	jmp	.L189
.L204:
	movq	%rax, %rbx
.L189:
	leaq	-33(%rbp), %rax
	movq	%rax, %rdi
	call	_ZNSaIcED1Ev
	movq	%rbx, %rax
	movq	%rax, %rdi
	call	_Unwind_Resume
.L207:
	movq	%rax, %rbx
	.loc 17 176 0
	leaq	-32(%rbp), %rax
	movq	%rax, %rdi
	call	_ZNSsD1Ev
	jmp	.L191
.L206:
	movq	%rax, %rbx
.L191:
	leaq	-33(%rbp), %rax
	movq	%rax, %rdi
	call	_ZNSaIcED1Ev
	movq	%rbx, %rax
	movq	%rax, %rdi
	call	_Unwind_Resume
.LEHE51:
.L208:
	.loc 17 178 0
	addq	$72, %rsp
	popq	%rbx
	popq	%rbp
	.cfi_def_cfa 7, 8
	ret
	.cfi_endproc
.LFE3416:
	.section	.gcc_except_table
.LLSDA3416:
	.byte	0xff
	.byte	0xff
	.byte	0x1
	.uleb128 .LLSDACSE3416-.LLSDACSB3416
.LLSDACSB3416:
	.uleb128 .LEHB35-.LFB3416
	.uleb128 .LEHE35-.LEHB35
	.uleb128 .L192-.LFB3416
	.uleb128 0
	.uleb128 .LEHB36-.LFB3416
	.uleb128 .LEHE36-.LEHB36
	.uleb128 .L193-.LFB3416
	.uleb128 0
	.uleb128 .LEHB37-.LFB3416
	.uleb128 .LEHE37-.LEHB37
	.uleb128 .L194-.LFB3416
	.uleb128 0
	.uleb128 .LEHB38-.LFB3416
	.uleb128 .LEHE38-.LEHB38
	.uleb128 .L195-.LFB3416
	.uleb128 0
	.uleb128 .LEHB39-.LFB3416
	.uleb128 .LEHE39-.LEHB39
	.uleb128 .L196-.LFB3416
	.uleb128 0
	.uleb128 .LEHB40-.LFB3416
	.uleb128 .LEHE40-.LEHB40
	.uleb128 .L197-.LFB3416
	.uleb128 0
	.uleb128 .LEHB41-.LFB3416
	.uleb128 .LEHE41-.LEHB41
	.uleb128 .L198-.LFB3416
	.uleb128 0
	.uleb128 .LEHB42-.LFB3416
	.uleb128 .LEHE42-.LEHB42
	.uleb128 .L199-.LFB3416
	.uleb128 0
	.uleb128 .LEHB43-.LFB3416
	.uleb128 .LEHE43-.LEHB43
	.uleb128 .L200-.LFB3416
	.uleb128 0
	.uleb128 .LEHB44-.LFB3416
	.uleb128 .LEHE44-.LEHB44
	.uleb128 .L201-.LFB3416
	.uleb128 0
	.uleb128 .LEHB45-.LFB3416
	.uleb128 .LEHE45-.LEHB45
	.uleb128 .L202-.LFB3416
	.uleb128 0
	.uleb128 .LEHB46-.LFB3416
	.uleb128 .LEHE46-.LEHB46
	.uleb128 .L203-.LFB3416
	.uleb128 0
	.uleb128 .LEHB47-.LFB3416
	.uleb128 .LEHE47-.LEHB47
	.uleb128 .L204-.LFB3416
	.uleb128 0
	.uleb128 .LEHB48-.LFB3416
	.uleb128 .LEHE48-.LEHB48
	.uleb128 .L205-.LFB3416
	.uleb128 0
	.uleb128 .LEHB49-.LFB3416
	.uleb128 .LEHE49-.LEHB49
	.uleb128 .L206-.LFB3416
	.uleb128 0
	.uleb128 .LEHB50-.LFB3416
	.uleb128 .LEHE50-.LEHB50
	.uleb128 .L207-.LFB3416
	.uleb128 0
	.uleb128 .LEHB51-.LFB3416
	.uleb128 .LEHE51-.LEHB51
	.uleb128 0
	.uleb128 0
.LLSDACSE3416:
	.text
	.size	_ZN5Model5Panel16setShaderTextureEN4Util6ShaderENS1_7TextureE, .-_ZN5Model5Panel16setShaderTextureEN4Util6ShaderENS1_7TextureE
	.align 2
	.globl	_ZN5Model5Panel6renderEv
	.type	_ZN5Model5Panel6renderEv, @function
_ZN5Model5Panel6renderEv:
.LFB3417:
	.loc 17 180 0
	.cfi_startproc
	pushq	%rbp
	.cfi_def_cfa_offset 16
	.cfi_offset 6, -16
	movq	%rsp, %rbp
	.cfi_def_cfa_register 6
	pushq	%rbx
	subq	$232, %rsp
	.cfi_offset 3, -24
	movq	%rdi, -232(%rbp)
.LBB37:
	.loc 17 181 0
	leaq	-80(%rbp), %rax
	movq	-232(%rbp), %rdx
	movq	%rdx, %rsi
	movq	%rax, %rdi
	call	_ZN5Model5Panel5getTfEv
	movq	-232(%rbp), %rax
	leaq	548(%rax), %rdx
	movq	-232(%rbp), %rax
	leaq	612(%rax), %rcx
	leaq	-144(%rbp), %rax
	movq	%rcx, %rsi
	movq	%rax, %rdi
	call	_ZN3glm6detailmlIfLNS_9precisionE0EEENS0_7tmat4x4IT_XT0_EEERKS5_S7_
	leaq	-208(%rbp), %rax
	leaq	-80(%rbp), %rdx
	leaq	-144(%rbp), %rcx
	movq	%rcx, %rsi
	movq	%rax, %rdi
	call	_ZN3glm6detailmlIfLNS_9precisionE0EEENS0_7tmat4x4IT_XT0_EEERKS5_S7_
	.loc 17 183 0
	movq	-232(%rbp), %rax
	movq	%rax, %rdi
	call	_ZN4Util17VertexArrayObject4bindEv
	.loc 17 185 0
	movq	-232(%rbp), %rax
	addq	$44, %rax
	movq	%rax, %rdi
	call	_ZN4Util6Shader4bindEv
	.loc 17 186 0
	movq	__glewUniformMatrix4fv(%rip), %rbx
	leaq	-208(%rbp), %rax
	movl	$0, %esi
	movq	%rax, %rdi
	call	_ZN3glm6detail7tmat4x4IfLNS_9precisionE0EEixEi
	movl	$0, %esi
	movq	%rax, %rdi
	call	_ZN3glm6detail5tvec4IfLNS_9precisionE0EEixEi
	movq	%rax, %rdx
	movq	-232(%rbp), %rax
	movl	64(%rax), %eax
	movq	%rdx, %rcx
	movl	$0, %edx
	movl	$1, %esi
	movl	%eax, %edi
	call	*%rbx
.LBB38:
	.loc 17 188 0
	movl	$0, -212(%rbp)
	jmp	.L210
.L213:
	.loc 17 189 0
	movq	-232(%rbp), %rcx
	movl	-212(%rbp), %eax
	movslq	%eax, %rdx
	movq	%rdx, %rax
	salq	$3, %rax
	addq	%rdx, %rax
	salq	$3, %rax
	addq	%rcx, %rax
	addq	$64, %rax
	movzbl	8(%rax), %eax
	testb	%al, %al
	je	.L211
	.loc 17 190 0
	movq	__glewUniformMatrix4fv(%rip), %rbx
	movl	-212(%rbp), %eax
	movslq	%eax, %rdx
	movq	%rdx, %rax
	salq	$3, %rax
	addq	%rdx, %rax
	salq	$3, %rax
	leaq	64(%rax), %rdx
	movq	-232(%rbp), %rax
	addq	%rdx, %rax
	addq	$12, %rax
	movl	$0, %esi
	movq	%rax, %rdi
	call	_ZN3glm6detail7tmat4x4IfLNS_9precisionE0EEixEi
	movl	$0, %esi
	movq	%rax, %rdi
	call	_ZN3glm6detail5tvec4IfLNS_9precisionE0EEixEi
	movq	%rax, %rcx
	movq	-232(%rbp), %rsi
	movl	-212(%rbp), %eax
	movslq	%eax, %rdx
	movq	%rdx, %rax
	salq	$3, %rax
	addq	%rdx, %rax
	salq	$3, %rax
	addq	%rsi, %rax
	addq	$68, %rax
	movl	(%rax), %eax
	movl	$0, %edx
	movl	$1, %esi
	movl	%eax, %edi
	call	*%rbx
.L211:
	.loc 17 192 0
	movq	-232(%rbp), %rcx
	movl	-212(%rbp), %eax
	movslq	%eax, %rdx
	movq	%rdx, %rax
	addq	%rax, %rax
	addq	%rdx, %rax
	salq	$3, %rax
	addq	%rcx, %rax
	addq	$272, %rax
	movzbl	16(%rax), %eax
	testb	%al, %al
	je	.L212
	.loc 17 193 0
	movq	__glewUniform4fv(%rip), %rbx
	movl	-212(%rbp), %eax
	movslq	%eax, %rdx
	movq	%rdx, %rax
	addq	%rax, %rax
	addq	%rdx, %rax
	salq	$3, %rax
	leaq	272(%rax), %rdx
	movq	-232(%rbp), %rax
	addq	%rdx, %rax
	addq	$20, %rax
	movl	$0, %esi
	movq	%rax, %rdi
	call	_ZN3glm6detail5tvec4IfLNS_9precisionE0EEixEi
	movq	%rax, %rcx
	movq	-232(%rbp), %rsi
	movl	-212(%rbp), %eax
	movslq	%eax, %rdx
	movq	%rdx, %rax
	addq	%rax, %rax
	addq	%rdx, %rax
	salq	$3, %rax
	addq	%rsi, %rax
	addq	$284, %rax
	movl	(%rax), %eax
	movq	%rcx, %rdx
	movl	$1, %esi
	movl	%eax, %edi
	call	*%rbx
.L212:
	.loc 17 188 0
	addl	$1, -212(%rbp)
.L210:
	.loc 17 188 0 is_stmt 0 discriminator 1
	cmpl	$2, -212(%rbp)
	jle	.L213
.LBE38:
	.loc 17 196 0 is_stmt 1
	movq	__glewActiveTexture(%rip), %rax
	movl	$33984, %edi
	call	*%rax
	.loc 17 197 0
	movq	-232(%rbp), %rax
	addq	$56, %rax
	movq	%rax, %rdi
	call	_ZN4Util7Texture4bindEv
	.loc 17 198 0
	movq	__glewUniform1i(%rip), %rax
	movq	-232(%rbp), %rdx
	movl	60(%rdx), %edx
	movl	$0, %esi
	movl	%edx, %edi
	call	*%rax
	.loc 17 200 0
	movq	-232(%rbp), %rax
	movl	$0, %esi
	movq	%rax, %rdi
	call	_ZN4Util17VertexArrayObject15enableAttributeEi
	.loc 17 201 0
	movq	-232(%rbp), %rax
	addq	$4, %rax
	movq	%rax, %rdi
	call	_ZN4Util18VertexBufferObject4bindEv
	.loc 17 202 0
	movq	-232(%rbp), %rax
	addq	$4, %rax
	movq	%rax, %rdi
	call	_ZN4Util18VertexBufferObject21generateAttribPointerEv
	.loc 17 204 0
	movq	-232(%rbp), %rax
	movl	$2, %esi
	movq	%rax, %rdi
	call	_ZN4Util17VertexArrayObject15enableAttributeEi
	.loc 17 205 0
	movq	-232(%rbp), %rax
	addq	$24, %rax
	movq	%rax, %rdi
	call	_ZN4Util18VertexBufferObject4bindEv
	.loc 17 206 0
	movq	-232(%rbp), %rax
	addq	$24, %rax
	movq	%rax, %rdi
	call	_ZN4Util18VertexBufferObject21generateAttribPointerEv
	.loc 17 208 0
	movl	$6, %edx
	movl	$0, %esi
	movl	$4, %edi
	call	glDrawArrays
	.loc 17 210 0
	movq	-232(%rbp), %rax
	movl	$0, %esi
	movq	%rax, %rdi
	call	_ZN4Util17VertexArrayObject16disableAttributeEi
	.loc 17 211 0
	movq	-232(%rbp), %rax
	movl	$2, %esi
	movq	%rax, %rdi
	call	_ZN4Util17VertexArrayObject16disableAttributeEi
.LBE37:
	.loc 17 212 0
	addq	$232, %rsp
	popq	%rbx
	popq	%rbp
	.cfi_def_cfa 7, 8
	ret
	.cfi_endproc
.LFE3417:
	.size	_ZN5Model5Panel6renderEv, .-_ZN5Model5Panel6renderEv
	.section	.text._ZNSt6chrono8durationIlSt5ratioILl1ELl1000000000EEEC1IlvEERKT_,"axG",@progbits,_ZNSt6chrono8durationIlSt5ratioILl1ELl1000000000EEEC1IlvEERKT_,comdat
	.align 2
	.weak	_ZNSt6chrono8durationIlSt5ratioILl1ELl1000000000EEEC1IlvEERKT_
	.type	_ZNSt6chrono8durationIlSt5ratioILl1ELl1000000000EEEC1IlvEERKT_, @function
_ZNSt6chrono8durationIlSt5ratioILl1ELl1000000000EEEC1IlvEERKT_:
.LFB3481:
	.file 18 "/usr/include/c++/4.8/chrono"
	.loc 18 262 0
	.cfi_startproc
	pushq	%rbp
	.cfi_def_cfa_offset 16
	.cfi_offset 6, -16
	movq	%rsp, %rbp
	.cfi_def_cfa_register 6
	movq	%rdi, -8(%rbp)
	movq	%rsi, -16(%rbp)
.LBB39:
	.loc 18 263 0
	movq	-16(%rbp), %rax
	movq	(%rax), %rdx
	movq	-8(%rbp), %rax
	movq	%rdx, (%rax)
.LBE39:
	popq	%rbp
	.cfi_def_cfa 7, 8
	ret
	.cfi_endproc
.LFE3481:
	.size	_ZNSt6chrono8durationIlSt5ratioILl1ELl1000000000EEEC1IlvEERKT_, .-_ZNSt6chrono8durationIlSt5ratioILl1ELl1000000000EEEC1IlvEERKT_
	.section	.text._ZNKSt6chrono8durationIlSt5ratioILl1ELl1000000000EEE5countEv,"axG",@progbits,_ZNKSt6chrono8durationIlSt5ratioILl1ELl1000000000EEE5countEv,comdat
	.align 2
	.weak	_ZNKSt6chrono8durationIlSt5ratioILl1ELl1000000000EEE5countEv
	.type	_ZNKSt6chrono8durationIlSt5ratioILl1ELl1000000000EEE5countEv, @function
_ZNKSt6chrono8durationIlSt5ratioILl1ELl1000000000EEE5countEv:
.LFB3485:
	.loc 18 277 0
	.cfi_startproc
	pushq	%rbp
	.cfi_def_cfa_offset 16
	.cfi_offset 6, -16
	movq	%rsp, %rbp
	.cfi_def_cfa_register 6
	movq	%rdi, -8(%rbp)
	.loc 18 278 0
	movq	-8(%rbp), %rax
	movq	(%rax), %rax
	popq	%rbp
	.cfi_def_cfa 7, 8
	ret
	.cfi_endproc
.LFE3485:
	.size	_ZNKSt6chrono8durationIlSt5ratioILl1ELl1000000000EEE5countEv, .-_ZNKSt6chrono8durationIlSt5ratioILl1ELl1000000000EEE5countEv
	.section	.text._ZNKSt6chrono10time_pointINS_3_V212system_clockENS_8durationIlSt5ratioILl1ELl1000000000EEEEE16time_since_epochEv,"axG",@progbits,_ZNKSt6chrono10time_pointINS_3_V212system_clockENS_8durationIlSt5ratioILl1ELl1000000000EEEEE16time_since_epochEv,comdat
	.align 2
	.weak	_ZNKSt6chrono10time_pointINS_3_V212system_clockENS_8durationIlSt5ratioILl1ELl1000000000EEEEE16time_since_epochEv
	.type	_ZNKSt6chrono10time_pointINS_3_V212system_clockENS_8durationIlSt5ratioILl1ELl1000000000EEEEE16time_since_epochEv, @function
_ZNKSt6chrono10time_pointINS_3_V212system_clockENS_8durationIlSt5ratioILl1ELl1000000000EEEEE16time_since_epochEv:
.LFB3487:
	.loc 18 567 0
	.cfi_startproc
	pushq	%rbp
	.cfi_def_cfa_offset 16
	.cfi_offset 6, -16
	movq	%rsp, %rbp
	.cfi_def_cfa_register 6
	movq	%rdi, -8(%rbp)
	.loc 18 568 0
	movq	-8(%rbp), %rax
	movq	(%rax), %rax
	popq	%rbp
	.cfi_def_cfa 7, 8
	ret
	.cfi_endproc
.LFE3487:
	.size	_ZNKSt6chrono10time_pointINS_3_V212system_clockENS_8durationIlSt5ratioILl1ELl1000000000EEEEE16time_since_epochEv, .-_ZNKSt6chrono10time_pointINS_3_V212system_clockENS_8durationIlSt5ratioILl1ELl1000000000EEEEE16time_since_epochEv
	.section	.text._ZNSt6chrono8durationIdSt5ratioILl1ELl1EEEC2Ev,"axG",@progbits,_ZNSt6chrono8durationIdSt5ratioILl1ELl1EEEC5Ev,comdat
	.align 2
	.weak	_ZNSt6chrono8durationIdSt5ratioILl1ELl1EEEC2Ev
	.type	_ZNSt6chrono8durationIdSt5ratioILl1ELl1EEEC2Ev, @function
_ZNSt6chrono8durationIdSt5ratioILl1ELl1EEEC2Ev:
.LFB3510:
	.loc 18 251 0
	.cfi_startproc
	pushq	%rbp
	.cfi_def_cfa_offset 16
	.cfi_offset 6, -16
	movq	%rsp, %rbp
	.cfi_def_cfa_register 6
	movq	%rdi, -8(%rbp)
	.loc 18 251 0
	popq	%rbp
	.cfi_def_cfa 7, 8
	ret
	.cfi_endproc
.LFE3510:
	.size	_ZNSt6chrono8durationIdSt5ratioILl1ELl1EEEC2Ev, .-_ZNSt6chrono8durationIdSt5ratioILl1ELl1EEEC2Ev
	.weak	_ZNSt6chrono8durationIdSt5ratioILl1ELl1EEEC1Ev
	.set	_ZNSt6chrono8durationIdSt5ratioILl1ELl1EEEC1Ev,_ZNSt6chrono8durationIdSt5ratioILl1ELl1EEEC2Ev
	.text
	.align 2
	.globl	_ZN9TimeClassC2Ev
	.type	_ZN9TimeClassC2Ev, @function
_ZN9TimeClassC2Ev:
.LFB3512:
	.file 19 "/home/joe/Github_Repos/CustomLibs/MISC/TimeClass.h"
	.loc 19 47 0
	.cfi_startproc
	pushq	%rbp
	.cfi_def_cfa_offset 16
	.cfi_offset 6, -16
	movq	%rsp, %rbp
	.cfi_def_cfa_register 6
	pushq	%rbx
	subq	$24, %rsp
	.cfi_offset 3, -24
	movq	%rdi, -24(%rbp)
.LBB40:
	.loc 19 47 0
	movq	-24(%rbp), %rax
	movq	$0, (%rax)
	movq	-24(%rbp), %rax
	movq	$0, 8(%rax)
	movq	-24(%rbp), %rax
	movq	$0, 16(%rax)
	movq	-24(%rbp), %rax
	addq	$24, %rax
	movq	%rax, %rdi
	call	_ZNSt6chrono8durationIdSt5ratioILl1ELl1EEEC1Ev
	.loc 19 48 0
	movq	-24(%rbp), %rbx
	call	_ZNSt6chrono3_V212system_clock3nowEv
	movq	%rax, 16(%rbx)
	.loc 19 49 0
	movq	-24(%rbp), %rax
	movq	-24(%rbp), %rdx
	movq	16(%rdx), %rdx
	movq	%rdx, (%rax)
	.loc 19 50 0
	movq	-24(%rbp), %rax
	movq	-24(%rbp), %rdx
	movq	16(%rdx), %rdx
	movq	%rdx, 8(%rax)
	.loc 19 51 0
	movq	-24(%rbp), %rbx
	call	_ZNSt6chrono3_V212system_clock3nowEv
	movq	%rax, 16(%rbx)
.LBE40:
	.loc 19 52 0
	addq	$24, %rsp
	popq	%rbx
	popq	%rbp
	.cfi_def_cfa 7, 8
	ret
	.cfi_endproc
.LFE3512:
	.size	_ZN9TimeClassC2Ev, .-_ZN9TimeClassC2Ev
	.globl	_ZN9TimeClassC1Ev
	.set	_ZN9TimeClassC1Ev,_ZN9TimeClassC2Ev
	.align 2
	.globl	_ZN9TimeClass10updateTimeEv
	.type	_ZN9TimeClass10updateTimeEv, @function
_ZN9TimeClass10updateTimeEv:
.LFB3514:
	.loc 19 54 0
	.cfi_startproc
	pushq	%rbp
	.cfi_def_cfa_offset 16
	.cfi_offset 6, -16
	movq	%rsp, %rbp
	.cfi_def_cfa_register 6
	pushq	%rbx
	subq	$24, %rsp
	.cfi_offset 3, -24
	movq	%rdi, -24(%rbp)
	.loc 19 55 0
	movq	-24(%rbp), %rax
	movq	-24(%rbp), %rdx
	movq	16(%rdx), %rdx
	movq	%rdx, 8(%rax)
	.loc 19 56 0
	movq	-24(%rbp), %rbx
	call	_ZNSt6chrono3_V212system_clock3nowEv
	movq	%rax, 16(%rbx)
	.loc 19 57 0
	addq	$24, %rsp
	popq	%rbx
	popq	%rbp
	.cfi_def_cfa 7, 8
	ret
	.cfi_endproc
.LFE3514:
	.size	_ZN9TimeClass10updateTimeEv, .-_ZN9TimeClass10updateTimeEv
	.align 2
	.globl	_ZN9TimeClass7getTimeEv
	.type	_ZN9TimeClass7getTimeEv, @function
_ZN9TimeClass7getTimeEv:
.LFB3515:
	.loc 19 59 0
	.cfi_startproc
	pushq	%rbp
	.cfi_def_cfa_offset 16
	.cfi_offset 6, -16
	movq	%rsp, %rbp
	.cfi_def_cfa_register 6
	movq	%rdi, -8(%rbp)
	.loc 19 60 0
	movq	-8(%rbp), %rax
	movq	16(%rax), %rax
	.loc 19 61 0
	popq	%rbp
	.cfi_def_cfa 7, 8
	ret
	.cfi_endproc
.LFE3515:
	.size	_ZN9TimeClass7getTimeEv, .-_ZN9TimeClass7getTimeEv
	.align 2
	.globl	_ZN9TimeClass13getTimeUpdateEv
	.type	_ZN9TimeClass13getTimeUpdateEv, @function
_ZN9TimeClass13getTimeUpdateEv:
.LFB3516:
	.loc 19 63 0
	.cfi_startproc
	pushq	%rbp
	.cfi_def_cfa_offset 16
	.cfi_offset 6, -16
	movq	%rsp, %rbp
	.cfi_def_cfa_register 6
	pushq	%rbx
	subq	$24, %rsp
	.cfi_offset 3, -24
	movq	%rdi, -24(%rbp)
	.loc 19 64 0
	movq	-24(%rbp), %rax
	movq	-24(%rbp), %rdx
	movq	16(%rdx), %rdx
	movq	%rdx, 8(%rax)
	.loc 19 65 0
	movq	-24(%rbp), %rbx
	call	_ZNSt6chrono3_V212system_clock3nowEv
	movq	%rax, 16(%rbx)
	.loc 19 66 0
	movq	-24(%rbp), %rax
	movq	16(%rax), %rax
	.loc 19 67 0
	addq	$24, %rsp
	popq	%rbx
	popq	%rbp
	.cfi_def_cfa 7, 8
	ret
	.cfi_endproc
.LFE3516:
	.size	_ZN9TimeClass13getTimeUpdateEv, .-_ZN9TimeClass13getTimeUpdateEv
	.section	.text._ZNSt6chronomiIlSt5ratioILl1ELl1000000000EElS2_EENSt11common_typeIINS_8durationIT_T0_EENS4_IT1_T2_EEEE4typeERKS7_RKSA_,"axG",@progbits,_ZNSt6chronomiIlSt5ratioILl1ELl1000000000EElS2_EENSt11common_typeIINS_8durationIT_T0_EENS4_IT1_T2_EEEE4typeERKS7_RKSA_,comdat
	.weak	_ZNSt6chronomiIlSt5ratioILl1ELl1000000000EElS2_EENSt11common_typeIINS_8durationIT_T0_EENS4_IT1_T2_EEEE4typeERKS7_RKSA_
	.type	_ZNSt6chronomiIlSt5ratioILl1ELl1000000000EElS2_EENSt11common_typeIINS_8durationIT_T0_EENS4_IT1_T2_EEEE4typeERKS7_RKSA_, @function
_ZNSt6chronomiIlSt5ratioILl1ELl1000000000EElS2_EENSt11common_typeIINS_8durationIT_T0_EENS4_IT1_T2_EEEE4typeERKS7_RKSA_:
.LFB3519:
	.loc 18 392 0
	.cfi_startproc
	pushq	%rbp
	.cfi_def_cfa_offset 16
	.cfi_offset 6, -16
	movq	%rsp, %rbp
	.cfi_def_cfa_register 6
	pushq	%rbx
	subq	$72, %rsp
	.cfi_offset 3, -24
	movq	%rdi, -72(%rbp)
	movq	%rsi, -80(%rbp)
.LBB41:
	.loc 18 398 0
	movq	-72(%rbp), %rax
	movq	(%rax), %rax
	movq	%rax, -48(%rbp)
	leaq	-48(%rbp), %rax
	movq	%rax, %rdi
	call	_ZNKSt6chrono8durationIlSt5ratioILl1ELl1000000000EEE5countEv
	movq	%rax, %rbx
	movq	-80(%rbp), %rax
	movq	(%rax), %rax
	movq	%rax, -64(%rbp)
	leaq	-64(%rbp), %rax
	movq	%rax, %rdi
	call	_ZNKSt6chrono8durationIlSt5ratioILl1ELl1000000000EEE5countEv
	subq	%rax, %rbx
	movq	%rbx, %rax
	movq	%rax, -24(%rbp)
	leaq	-24(%rbp), %rdx
	leaq	-32(%rbp), %rax
	movq	%rdx, %rsi
	movq	%rax, %rdi
	call	_ZNSt6chrono8durationIlSt5ratioILl1ELl1000000000EEEC1IlvEERKT_
	movq	-32(%rbp), %rax
.LBE41:
	.loc 18 399 0
	addq	$72, %rsp
	popq	%rbx
	popq	%rbp
	.cfi_def_cfa 7, 8
	ret
	.cfi_endproc
.LFE3519:
	.size	_ZNSt6chronomiIlSt5ratioILl1ELl1000000000EElS2_EENSt11common_typeIINS_8durationIT_T0_EENS4_IT1_T2_EEEE4typeERKS7_RKSA_, .-_ZNSt6chronomiIlSt5ratioILl1ELl1000000000EElS2_EENSt11common_typeIINS_8durationIT_T0_EENS4_IT1_T2_EEEE4typeERKS7_RKSA_
	.weak	_ZNSt6chronomiIlSt5ratioILl1ELl1000000000EElS2_EENSt11common_typeIJNS_8durationIT_T0_EENS4_IT1_T2_EEEE4typeERKS7_RKSA_
	.set	_ZNSt6chronomiIlSt5ratioILl1ELl1000000000EElS2_EENSt11common_typeIJNS_8durationIT_T0_EENS4_IT1_T2_EEEE4typeERKS7_RKSA_,_ZNSt6chronomiIlSt5ratioILl1ELl1000000000EElS2_EENSt11common_typeIINS_8durationIT_T0_EENS4_IT1_T2_EEEE4typeERKS7_RKSA_
	.section	.text._ZNSt6chronomiINS_3_V212system_clockENS_8durationIlSt5ratioILl1ELl1000000000EEEES6_EENSt11common_typeIIT0_T1_EE4typeERKNS_10time_pointIT_S8_EERKNSC_ISD_S9_EE,"axG",@progbits,_ZNSt6chronomiINS_3_V212system_clockENS_8durationIlSt5ratioILl1ELl1000000000EEEES6_EENSt11common_typeIIT0_T1_EE4typeERKNS_10time_pointIT_S8_EERKNSC_ISD_S9_EE,comdat
	.weak	_ZNSt6chronomiINS_3_V212system_clockENS_8durationIlSt5ratioILl1ELl1000000000EEEES6_EENSt11common_typeIIT0_T1_EE4typeERKNS_10time_pointIT_S8_EERKNSC_ISD_S9_EE
	.type	_ZNSt6chronomiINS_3_V212system_clockENS_8durationIlSt5ratioILl1ELl1000000000EEEES6_EENSt11common_typeIIT0_T1_EE4typeERKNS_10time_pointIT_S8_EERKNSC_ISD_S9_EE, @function
_ZNSt6chronomiINS_3_V212system_clockENS_8durationIlSt5ratioILl1ELl1000000000EEEES6_EENSt11common_typeIIT0_T1_EE4typeERKNS_10time_pointIT_S8_EERKNSC_ISD_S9_EE:
.LFB3518:
	.loc 18 649 0
	.cfi_startproc
	pushq	%rbp
	.cfi_def_cfa_offset 16
	.cfi_offset 6, -16
	movq	%rsp, %rbp
	.cfi_def_cfa_register 6
	subq	$48, %rsp
	movq	%rdi, -40(%rbp)
	movq	%rsi, -48(%rbp)
	.loc 18 651 0
	movq	-48(%rbp), %rax
	movq	%rax, %rdi
	call	_ZNKSt6chrono10time_pointINS_3_V212system_clockENS_8durationIlSt5ratioILl1ELl1000000000EEEEE16time_since_epochEv
	movq	%rax, -32(%rbp)
	movq	-40(%rbp), %rax
	movq	%rax, %rdi
	call	_ZNKSt6chrono10time_pointINS_3_V212system_clockENS_8durationIlSt5ratioILl1ELl1000000000EEEEE16time_since_epochEv
	movq	%rax, -16(%rbp)
	leaq	-32(%rbp), %rdx
	leaq	-16(%rbp), %rax
	movq	%rdx, %rsi
	movq	%rax, %rdi
	call	_ZNSt6chronomiIlSt5ratioILl1ELl1000000000EElS2_EENSt11common_typeIINS_8durationIT_T0_EENS4_IT1_T2_EEEE4typeERKS7_RKSA_
	leave
	.cfi_def_cfa 7, 8
	ret
	.cfi_endproc
.LFE3518:
	.size	_ZNSt6chronomiINS_3_V212system_clockENS_8durationIlSt5ratioILl1ELl1000000000EEEES6_EENSt11common_typeIIT0_T1_EE4typeERKNS_10time_pointIT_S8_EERKNSC_ISD_S9_EE, .-_ZNSt6chronomiINS_3_V212system_clockENS_8durationIlSt5ratioILl1ELl1000000000EEEES6_EENSt11common_typeIIT0_T1_EE4typeERKNS_10time_pointIT_S8_EERKNSC_ISD_S9_EE
	.weak	_ZNSt6chronomiINS_3_V212system_clockENS_8durationIlSt5ratioILl1ELl1000000000EEEES6_EENSt11common_typeIJT0_T1_EE4typeERKNS_10time_pointIT_S8_EERKNSC_ISD_S9_EE
	.set	_ZNSt6chronomiINS_3_V212system_clockENS_8durationIlSt5ratioILl1ELl1000000000EEEES6_EENSt11common_typeIJT0_T1_EE4typeERKNS_10time_pointIT_S8_EERKNSC_ISD_S9_EE,_ZNSt6chronomiINS_3_V212system_clockENS_8durationIlSt5ratioILl1ELl1000000000EEEES6_EENSt11common_typeIIT0_T1_EE4typeERKNS_10time_pointIT_S8_EERKNSC_ISD_S9_EE
	.section	.text._ZNSt6chrono8durationIdSt5ratioILl1ELl1EEEC1IdvEERKT_,"axG",@progbits,_ZNSt6chrono8durationIdSt5ratioILl1ELl1EEEC1IdvEERKT_,comdat
	.align 2
	.weak	_ZNSt6chrono8durationIdSt5ratioILl1ELl1EEEC1IdvEERKT_
	.type	_ZNSt6chrono8durationIdSt5ratioILl1ELl1EEEC1IdvEERKT_, @function
_ZNSt6chrono8durationIdSt5ratioILl1ELl1EEEC1IdvEERKT_:
.LFB3525:
	.loc 18 262 0
	.cfi_startproc
	pushq	%rbp
	.cfi_def_cfa_offset 16
	.cfi_offset 6, -16
	movq	%rsp, %rbp
	.cfi_def_cfa_register 6
	movq	%rdi, -8(%rbp)
	movq	%rsi, -16(%rbp)
.LBB42:
	.loc 18 263 0
	movq	-16(%rbp), %rax
	movq	(%rax), %rax
	movq	-8(%rbp), %rdx
	movq	%rax, (%rdx)
.LBE42:
	popq	%rbp
	.cfi_def_cfa 7, 8
	ret
	.cfi_endproc
.LFE3525:
	.size	_ZNSt6chrono8durationIdSt5ratioILl1ELl1EEEC1IdvEERKT_, .-_ZNSt6chrono8durationIdSt5ratioILl1ELl1EEEC1IdvEERKT_
	.section	.text._ZNSt6chrono20__duration_cast_implINS_8durationIdSt5ratioILl1ELl1EEEES2_ILl1ELl1000000000EEdLb1ELb0EE6__castIlS5_EES4_RKNS1_IT_T0_EE,"axG",@progbits,_ZNSt6chrono20__duration_cast_implINS_8durationIdSt5ratioILl1ELl1EEEES2_ILl1ELl1000000000EEdLb1ELb0EE6__castIlS5_EES4_RKNS1_IT_T0_EE,comdat
	.weak	_ZNSt6chrono20__duration_cast_implINS_8durationIdSt5ratioILl1ELl1EEEES2_ILl1ELl1000000000EEdLb1ELb0EE6__castIlS5_EES4_RKNS1_IT_T0_EE
	.type	_ZNSt6chrono20__duration_cast_implINS_8durationIdSt5ratioILl1ELl1EEEES2_ILl1ELl1000000000EEdLb1ELb0EE6__castIlS5_EES4_RKNS1_IT_T0_EE, @function
_ZNSt6chrono20__duration_cast_implINS_8durationIdSt5ratioILl1ELl1EEEES2_ILl1ELl1000000000EEdLb1ELb0EE6__castIlS5_EES4_RKNS1_IT_T0_EE:
.LFB3522:
	.loc 18 158 0
	.cfi_startproc
	pushq	%rbp
	.cfi_def_cfa_offset 16
	.cfi_offset 6, -16
	movq	%rsp, %rbp
	.cfi_def_cfa_register 6
	subq	$32, %rsp
	movq	%rdi, -24(%rbp)
.LBB43:
	.loc 18 162 0
	movq	-24(%rbp), %rax
	movq	%rax, %rdi
	call	_ZNKSt6chrono8durationIlSt5ratioILl1ELl1000000000EEE5countEv
	cvtsi2sdq	%rax, %xmm0
	movsd	.LC40(%rip), %xmm1
	divsd	%xmm1, %xmm0
	movsd	%xmm0, -8(%rbp)
	leaq	-8(%rbp), %rdx
	leaq	-16(%rbp), %rax
	movq	%rdx, %rsi
	movq	%rax, %rdi
	call	_ZNSt6chrono8durationIdSt5ratioILl1ELl1EEEC1IdvEERKT_
	movq	-16(%rbp), %rax
.LBE43:
	.loc 18 163 0
	movq	%rax, -32(%rbp)
	movsd	-32(%rbp), %xmm0
	leave
	.cfi_def_cfa 7, 8
	ret
	.cfi_endproc
.LFE3522:
	.size	_ZNSt6chrono20__duration_cast_implINS_8durationIdSt5ratioILl1ELl1EEEES2_ILl1ELl1000000000EEdLb1ELb0EE6__castIlS5_EES4_RKNS1_IT_T0_EE, .-_ZNSt6chrono20__duration_cast_implINS_8durationIdSt5ratioILl1ELl1EEEES2_ILl1ELl1000000000EEdLb1ELb0EE6__castIlS5_EES4_RKNS1_IT_T0_EE
	.section	.text._ZNSt6chrono13duration_castINS_8durationIdSt5ratioILl1ELl1EEEElS2_ILl1ELl1000000000EEEENSt9enable_ifIXsrNS_13__is_durationIT_EE5valueES8_E4typeERKNS1_IT0_T1_EE,"axG",@progbits,_ZNSt6chrono13duration_castINS_8durationIdSt5ratioILl1ELl1EEEElS2_ILl1ELl1000000000EEEENSt9enable_ifIXsrNS_13__is_durationIT_EE5valueES8_E4typeERKNS1_IT0_T1_EE,comdat
	.weak	_ZNSt6chrono13duration_castINS_8durationIdSt5ratioILl1ELl1EEEElS2_ILl1ELl1000000000EEEENSt9enable_ifIXsrNS_13__is_durationIT_EE5valueES8_E4typeERKNS1_IT0_T1_EE
	.type	_ZNSt6chrono13duration_castINS_8durationIdSt5ratioILl1ELl1EEEElS2_ILl1ELl1000000000EEEENSt9enable_ifIXsrNS_13__is_durationIT_EE5valueES8_E4typeERKNS1_IT0_T1_EE, @function
_ZNSt6chrono13duration_castINS_8durationIdSt5ratioILl1ELl1EEEElS2_ILl1ELl1000000000EEEENSt9enable_ifIXsrNS_13__is_durationIT_EE5valueES8_E4typeERKNS1_IT0_T1_EE:
.LFB3521:
	.loc 18 193 0
	.cfi_startproc
	pushq	%rbp
	.cfi_def_cfa_offset 16
	.cfi_offset 6, -16
	movq	%rsp, %rbp
	.cfi_def_cfa_register 6
	subq	$16, %rsp
	movq	%rdi, -8(%rbp)
.LBB44:
	.loc 18 202 0
	movq	-8(%rbp), %rax
	movq	%rax, %rdi
	call	_ZNSt6chrono20__duration_cast_implINS_8durationIdSt5ratioILl1ELl1EEEES2_ILl1ELl1000000000EEdLb1ELb0EE6__castIlS5_EES4_RKNS1_IT_T0_EE
	movsd	%xmm0, -16(%rbp)
	movq	-16(%rbp), %rax
.LBE44:
	.loc 18 203 0
	movq	%rax, -16(%rbp)
	movsd	-16(%rbp), %xmm0
	leave
	.cfi_def_cfa 7, 8
	ret
	.cfi_endproc
.LFE3521:
	.size	_ZNSt6chrono13duration_castINS_8durationIdSt5ratioILl1ELl1EEEElS2_ILl1ELl1000000000EEEENSt9enable_ifIXsrNS_13__is_durationIT_EE5valueES8_E4typeERKNS1_IT0_T1_EE, .-_ZNSt6chrono13duration_castINS_8durationIdSt5ratioILl1ELl1EEEElS2_ILl1ELl1000000000EEEENSt9enable_ifIXsrNS_13__is_durationIT_EE5valueES8_E4typeERKNS1_IT0_T1_EE
	.section	.text._ZNKSt6chrono8durationIdSt5ratioILl1ELl1EEE5countEv,"axG",@progbits,_ZNKSt6chrono8durationIdSt5ratioILl1ELl1EEE5countEv,comdat
	.align 2
	.weak	_ZNKSt6chrono8durationIdSt5ratioILl1ELl1EEE5countEv
	.type	_ZNKSt6chrono8durationIdSt5ratioILl1ELl1EEE5countEv, @function
_ZNKSt6chrono8durationIdSt5ratioILl1ELl1EEE5countEv:
.LFB3526:
	.loc 18 277 0
	.cfi_startproc
	pushq	%rbp
	.cfi_def_cfa_offset 16
	.cfi_offset 6, -16
	movq	%rsp, %rbp
	.cfi_def_cfa_register 6
	movq	%rdi, -8(%rbp)
	.loc 18 278 0
	movq	-8(%rbp), %rax
	movq	(%rax), %rax
	movq	%rax, -16(%rbp)
	movsd	-16(%rbp), %xmm0
	popq	%rbp
	.cfi_def_cfa 7, 8
	ret
	.cfi_endproc
.LFE3526:
	.size	_ZNKSt6chrono8durationIdSt5ratioILl1ELl1EEE5countEv, .-_ZNKSt6chrono8durationIdSt5ratioILl1ELl1EEE5countEv
	.section	.text._ZNSt6chrono8durationIdSt5ratioILl1ELl1EEEC1IlS1_ILl1ELl1000000000EEvEERKNS0_IT_T0_EE,"axG",@progbits,_ZNSt6chrono8durationIdSt5ratioILl1ELl1EEEC1IlS1_ILl1ELl1000000000EEvEERKNS0_IT_T0_EE,comdat
	.align 2
	.weak	_ZNSt6chrono8durationIdSt5ratioILl1ELl1EEEC1IlS1_ILl1ELl1000000000EEvEERKNS0_IT_T0_EE
	.type	_ZNSt6chrono8durationIdSt5ratioILl1ELl1EEEC1IlS1_ILl1ELl1000000000EEvEERKNS0_IT_T0_EE, @function
_ZNSt6chrono8durationIdSt5ratioILl1ELl1EEEC1IlS1_ILl1ELl1000000000EEvEERKNS0_IT_T0_EE:
.LFB3528:
	.loc 18 269 0
	.cfi_startproc
	pushq	%rbp
	.cfi_def_cfa_offset 16
	.cfi_offset 6, -16
	movq	%rsp, %rbp
	.cfi_def_cfa_register 6
	subq	$48, %rsp
	movq	%rdi, -24(%rbp)
	movq	%rsi, -32(%rbp)
.LBB45:
	.loc 18 270 0
	movq	-32(%rbp), %rax
	movq	%rax, %rdi
	call	_ZNSt6chrono13duration_castINS_8durationIdSt5ratioILl1ELl1EEEElS2_ILl1ELl1000000000EEEENSt9enable_ifIXsrNS_13__is_durationIT_EE5valueES8_E4typeERKNS1_IT0_T1_EE
	movsd	%xmm0, -40(%rbp)
	movq	-40(%rbp), %rax
	movq	%rax, -16(%rbp)
	leaq	-16(%rbp), %rax
	movq	%rax, %rdi
	call	_ZNKSt6chrono8durationIdSt5ratioILl1ELl1EEE5countEv
	movsd	%xmm0, -40(%rbp)
	movq	-40(%rbp), %rax
	movq	-24(%rbp), %rdx
	movq	%rax, (%rdx)
.LBE45:
	leave
	.cfi_def_cfa 7, 8
	ret
	.cfi_endproc
.LFE3528:
	.size	_ZNSt6chrono8durationIdSt5ratioILl1ELl1EEEC1IlS1_ILl1ELl1000000000EEvEERKNS0_IT_T0_EE, .-_ZNSt6chrono8durationIdSt5ratioILl1ELl1EEEC1IlS1_ILl1ELl1000000000EEvEERKNS0_IT_T0_EE
	.text
	.align 2
	.globl	_ZN9TimeClass17getElapsedSecondsEv
	.type	_ZN9TimeClass17getElapsedSecondsEv, @function
_ZN9TimeClass17getElapsedSecondsEv:
.LFB3517:
	.loc 19 69 0
	.cfi_startproc
	pushq	%rbp
	.cfi_def_cfa_offset 16
	.cfi_offset 6, -16
	movq	%rsp, %rbp
	.cfi_def_cfa_register 6
	subq	$48, %rsp
	movq	%rdi, -40(%rbp)
	.loc 19 70 0
	movq	-40(%rbp), %rax
	leaq	8(%rax), %rdx
	movq	-40(%rbp), %rax
	addq	$16, %rax
	movq	%rdx, %rsi
	movq	%rax, %rdi
	call	_ZNSt6chronomiINS_3_V212system_clockENS_8durationIlSt5ratioILl1ELl1000000000EEEES6_EENSt11common_typeIIT0_T1_EE4typeERKNS_10time_pointIT_S8_EERKNSC_ISD_S9_EE
	movq	%rax, -32(%rbp)
	leaq	-32(%rbp), %rdx
	leaq	-16(%rbp), %rax
	movq	%rdx, %rsi
	movq	%rax, %rdi
	call	_ZNSt6chrono8durationIdSt5ratioILl1ELl1EEEC1IlS1_ILl1ELl1000000000EEvEERKNS0_IT_T0_EE
	movq	-40(%rbp), %rdx
	movq	-16(%rbp), %rax
	movq	%rax, 24(%rdx)
	.loc 19 71 0
	movq	-40(%rbp), %rax
	addq	$24, %rax
	movq	%rax, %rdi
	call	_ZNKSt6chrono8durationIdSt5ratioILl1ELl1EEE5countEv
	movsd	%xmm0, -48(%rbp)
	movq	-48(%rbp), %rax
	.loc 19 72 0
	movq	%rax, -48(%rbp)
	movsd	-48(%rbp), %xmm0
	leave
	.cfi_def_cfa 7, 8
	ret
	.cfi_endproc
.LFE3517:
	.size	_ZN9TimeClass17getElapsedSecondsEv, .-_ZN9TimeClass17getElapsedSecondsEv
	.align 2
	.globl	_ZN9TimeClass23getElapsedSecondsUpdateEv
	.type	_ZN9TimeClass23getElapsedSecondsUpdateEv, @function
_ZN9TimeClass23getElapsedSecondsUpdateEv:
.LFB3529:
	.loc 19 74 0
	.cfi_startproc
	pushq	%rbp
	.cfi_def_cfa_offset 16
	.cfi_offset 6, -16
	movq	%rsp, %rbp
	.cfi_def_cfa_register 6
	pushq	%rbx
	subq	$56, %rsp
	.cfi_offset 3, -24
	movq	%rdi, -56(%rbp)
	.loc 19 75 0
	movq	-56(%rbp), %rax
	movq	-56(%rbp), %rdx
	movq	16(%rdx), %rdx
	movq	%rdx, 8(%rax)
	.loc 19 76 0
	movq	-56(%rbp), %rbx
	call	_ZNSt6chrono3_V212system_clock3nowEv
	movq	%rax, 16(%rbx)
	.loc 19 77 0
	movq	-56(%rbp), %rax
	leaq	8(%rax), %rdx
	movq	-56(%rbp), %rax
	addq	$16, %rax
	movq	%rdx, %rsi
	movq	%rax, %rdi
	call	_ZNSt6chronomiINS_3_V212system_clockENS_8durationIlSt5ratioILl1ELl1000000000EEEES6_EENSt11common_typeIIT0_T1_EE4typeERKNS_10time_pointIT_S8_EERKNSC_ISD_S9_EE
	movq	%rax, -48(%rbp)
	leaq	-48(%rbp), %rdx
	leaq	-32(%rbp), %rax
	movq	%rdx, %rsi
	movq	%rax, %rdi
	call	_ZNSt6chrono8durationIdSt5ratioILl1ELl1EEEC1IlS1_ILl1ELl1000000000EEvEERKNS0_IT_T0_EE
	movq	-56(%rbp), %rdx
	movq	-32(%rbp), %rax
	movq	%rax, 24(%rdx)
	.loc 19 78 0
	movq	-56(%rbp), %rax
	addq	$24, %rax
	movq	%rax, %rdi
	call	_ZNKSt6chrono8durationIdSt5ratioILl1ELl1EEE5countEv
	movsd	%xmm0, -64(%rbp)
	movq	-64(%rbp), %rax
	.loc 19 79 0
	movq	%rax, -64(%rbp)
	movsd	-64(%rbp), %xmm0
	addq	$56, %rsp
	popq	%rbx
	popq	%rbp
	.cfi_def_cfa 7, 8
	ret
	.cfi_endproc
.LFE3529:
	.size	_ZN9TimeClass23getElapsedSecondsUpdateEv, .-_ZN9TimeClass23getElapsedSecondsUpdateEv
	.align 2
	.globl	_ZN9TimeClass19getTotalElapsedTimeEv
	.type	_ZN9TimeClass19getTotalElapsedTimeEv, @function
_ZN9TimeClass19getTotalElapsedTimeEv:
.LFB3530:
	.loc 19 81 0
	.cfi_startproc
	pushq	%rbp
	.cfi_def_cfa_offset 16
	.cfi_offset 6, -16
	movq	%rsp, %rbp
	.cfi_def_cfa_register 6
	subq	$48, %rsp
	movq	%rdi, -40(%rbp)
	.loc 19 82 0
	movq	-40(%rbp), %rax
	movq	-40(%rbp), %rdx
	addq	$16, %rdx
	movq	%rax, %rsi
	movq	%rdx, %rdi
	call	_ZNSt6chronomiINS_3_V212system_clockENS_8durationIlSt5ratioILl1ELl1000000000EEEES6_EENSt11common_typeIIT0_T1_EE4typeERKNS_10time_pointIT_S8_EERKNSC_ISD_S9_EE
	movq	%rax, -32(%rbp)
	leaq	-32(%rbp), %rdx
	leaq	-16(%rbp), %rax
	movq	%rdx, %rsi
	movq	%rax, %rdi
	call	_ZNSt6chrono8durationIdSt5ratioILl1ELl1EEEC1IlS1_ILl1ELl1000000000EEvEERKNS0_IT_T0_EE
	movq	-40(%rbp), %rdx
	movq	-16(%rbp), %rax
	movq	%rax, 24(%rdx)
	.loc 19 83 0
	movq	-40(%rbp), %rax
	addq	$24, %rax
	movq	%rax, %rdi
	call	_ZNKSt6chrono8durationIdSt5ratioILl1ELl1EEE5countEv
	movsd	%xmm0, -48(%rbp)
	movq	-48(%rbp), %rax
	.loc 19 84 0
	movq	%rax, -48(%rbp)
	movsd	-48(%rbp), %xmm0
	leave
	.cfi_def_cfa 7, 8
	ret
	.cfi_endproc
.LFE3530:
	.size	_ZN9TimeClass19getTotalElapsedTimeEv, .-_ZN9TimeClass19getTotalElapsedTimeEv
	.globl	_ZN10Proj_Tools12getIntersectEN3glm6detail5tvec3IfLNS0_9precisionE0EEES4_
	.type	_ZN10Proj_Tools12getIntersectEN3glm6detail5tvec3IfLNS0_9precisionE0EEES4_, @function
_ZN10Proj_Tools12getIntersectEN3glm6detail5tvec3IfLNS0_9precisionE0EEES4_:
.LFB3538:
	.file 20 "/home/joe/Github_Repos/opengl-projects/TextureMapping/proj-tool.h"
	.loc 20 11 0
	.cfi_startproc
	pushq	%rbp
	.cfi_def_cfa_offset 16
	.cfi_offset 6, -16
	movq	%rsp, %rbp
	.cfi_def_cfa_register 6
	subq	$112, %rsp
	movq	%rdi, -88(%rbp)
	movq	%rsi, -96(%rbp)
	movq	%rdx, -104(%rbp)
.LBB46:
	.loc 20 13 0
	movl	$0, -48(%rbp)
	movl	$1, -52(%rbp)
	movl	$0, -56(%rbp)
	leaq	-48(%rbp), %rcx
	leaq	-52(%rbp), %rdx
	leaq	-56(%rbp), %rsi
	leaq	-16(%rbp), %rax
	movq	%rax, %rdi
	call	_ZN3glm6detail5tvec3IfLNS_9precisionE0EEC1IiiiEERKT_RKT0_RKT1_
	movl	$0, -60(%rbp)
	movl	$0, -64(%rbp)
	movl	$0, -68(%rbp)
	leaq	-60(%rbp), %rcx
	leaq	-64(%rbp), %rdx
	leaq	-68(%rbp), %rsi
	leaq	-32(%rbp), %rax
	movq	%rax, %rdi
	call	_ZN3glm6detail5tvec3IfLNS_9precisionE0EEC1IiiiEERKT_RKT0_RKT1_
	leaq	-76(%rbp), %rdi
	leaq	-16(%rbp), %rcx
	leaq	-32(%rbp), %rdx
	movq	-104(%rbp), %rsi
	movq	-96(%rbp), %rax
	movq	%rdi, %r8
	movq	%rax, %rdi
	call	_ZN3glm17intersectRayPlaneINS_6detail5tvec3IfLNS_9precisionE0EEEEEbRKT_S7_S7_S7_RNS5_10value_typeE
	testb	%al, %al
	je	.L245
	.loc 20 14 0
	leaq	-16(%rbp), %rax
	leaq	-76(%rbp), %rdx
	movq	-104(%rbp), %rcx
	movq	%rcx, %rsi
	movq	%rax, %rdi
	call	_ZN3glm6detailmlIfLNS_9precisionE0EEENS0_5tvec3IT_XT0_EEERKS5_RKS4_
	movq	-88(%rbp), %rax
	leaq	-16(%rbp), %rdx
	movq	-96(%rbp), %rcx
	movq	%rcx, %rsi
	movq	%rax, %rdi
	call	_ZN3glm6detailplIfLNS_9precisionE0EEENS0_5tvec3IT_XT0_EEERKS5_S7_
	jmp	.L244
.L245:
	.loc 20 15 0
	movl	$0, -52(%rbp)
	movl	$1, -56(%rbp)
	movl	$0, -60(%rbp)
	leaq	-52(%rbp), %rcx
	leaq	-56(%rbp), %rdx
	leaq	-60(%rbp), %rsi
	leaq	-16(%rbp), %rax
	movq	%rax, %rdi
	call	_ZN3glm6detail5tvec3IfLNS_9precisionE0EEC1IiiiEERKT_RKT0_RKT1_
	movl	$0, -64(%rbp)
	movl	$0, -68(%rbp)
	movl	$0, -72(%rbp)
	leaq	-64(%rbp), %rcx
	leaq	-68(%rbp), %rdx
	leaq	-72(%rbp), %rsi
	leaq	-32(%rbp), %rax
	movq	%rax, %rdi
	call	_ZN3glm6detail5tvec3IfLNS_9precisionE0EEC1IiiiEERKT_RKT0_RKT1_
	leaq	-48(%rbp), %rax
	movq	-104(%rbp), %rdx
	movq	%rdx, %rsi
	movq	%rax, %rdi
	call	_ZN3glm6detailngIfLNS_9precisionE0EEENS0_5tvec3IT_XT0_EEERKS5_
	leaq	-76(%rbp), %rdi
	leaq	-16(%rbp), %rcx
	leaq	-32(%rbp), %rdx
	leaq	-48(%rbp), %rsi
	movq	-96(%rbp), %rax
	movq	%rdi, %r8
	movq	%rax, %rdi
	call	_ZN3glm17intersectRayPlaneINS_6detail5tvec3IfLNS_9precisionE0EEEEEbRKT_S7_S7_S7_RNS5_10value_typeE
	testb	%al, %al
	je	.L247
	.loc 20 16 0
	leaq	-16(%rbp), %rax
	leaq	-76(%rbp), %rdx
	movq	-104(%rbp), %rcx
	movq	%rcx, %rsi
	movq	%rax, %rdi
	call	_ZN3glm6detailmlIfLNS_9precisionE0EEENS0_5tvec3IT_XT0_EEERKS5_RKS4_
	movq	-88(%rbp), %rax
	leaq	-16(%rbp), %rdx
	movq	-96(%rbp), %rcx
	movq	%rcx, %rsi
	movq	%rax, %rdi
	call	_ZN3glm6detailplIfLNS_9precisionE0EEENS0_5tvec3IT_XT0_EEERKS5_S7_
	jmp	.L244
.L247:
	.loc 20 19 0
	movq	-96(%rbp), %rdx
	movq	-88(%rbp), %rax
	movq	%rdx, %rsi
	movq	%rax, %rdi
	call	_ZN3glm6detail5tvec3IfLNS_9precisionE0EEC1ERKS3_
.L244:
.LBE46:
	.loc 20 20 0
	movq	-88(%rbp), %rax
	leave
	.cfi_def_cfa 7, 8
	ret
	.cfi_endproc
.LFE3538:
	.size	_ZN10Proj_Tools12getIntersectEN3glm6detail5tvec3IfLNS0_9precisionE0EEES4_, .-_ZN10Proj_Tools12getIntersectEN3glm6detail5tvec3IfLNS0_9precisionE0EEES4_
	.section	.rodata
.LC41:
	.string	"TextureMapping"
.LC42:
	.string	"../assets/shader/"
.LC43:
	.string	"frag-track-intersect.glsl"
.LC44:
	.string	"vtx-track-intersect.glsl"
.LC45:
	.string	"../assets/img/"
.LC46:
	.string	"grass-1.jpg"
.LC47:
	.string	"shaggy-this-isnt-weed.jpg"
.LC48:
	.string	"is-that-chicken.jpg"
.LC49:
	.string	"os_users_as_seen_by.jpg"
.LC50:
	.string	"oil-your-brakes.jpg"
.LC51:
	.string	"ndsu_map.jpg"
	.text
	.globl	main
	.type	main, @function
main:
.LFB3539:
	.file 21 "/home/joe/Github_Repos/opengl-projects/TextureMapping/main.cpp"
	.loc 21 42 0
	.cfi_startproc
	.cfi_personality 0x3,__gxx_personality_v0
	.cfi_lsda 0x3,.LLSDA3539
	pushq	%rbp
	.cfi_def_cfa_offset 16
	.cfi_offset 6, -16
	movq	%rsp, %rbp
	.cfi_def_cfa_register 6
	pushq	%rbx
	subq	$4840, %rsp
	.cfi_offset 3, -24
	movl	%edi, -4836(%rbp)
	movq	%rsi, -4848(%rbp)
.LBB47:
	.loc 21 44 0
	leaq	-1648(%rbp), %rax
	movq	%rax, %rdi
	call	_ZNSaIcEC1Ev
	leaq	-1648(%rbp), %rdx
	leaq	-832(%rbp), %rax
	movl	$.LC41, %esi
	movq	%rax, %rdi
.LEHB52:
	call	_ZNSsC1EPKcRKSaIcE
.LEHE52:
	.loc 21 44 0 is_stmt 0 discriminator 1
	leaq	-832(%rbp), %rax
	movl	$1, %r9d
	movl	$3, %r8d
	movl	$3, %ecx
	movq	%rax, %rdx
	movl	$600, %esi
	movl	$800, %edi
.LEHB53:
	call	_Z9GLFW_InitiiSsiih
.LEHE53:
	movq	%rax, -4568(%rbp)
	leaq	-832(%rbp), %rax
	movq	%rax, %rdi
	call	_ZNSsD1Ev
	leaq	-1648(%rbp), %rax
	movq	%rax, %rdi
	call	_ZNSaIcED1Ev
.LEHB54:
	.loc 21 45 0 is_stmt 1 discriminator 1
	call	_ZN13TextureLoader6InitILEv
	.loc 21 47 0 discriminator 1
	movl	$2929, %edi
	call	glEnable
	.loc 21 48 0 discriminator 1
	movl	$513, %edi
	call	glDepthFunc
	.loc 21 49 0 discriminator 1
	movss	.LC1(%rip), %xmm3
	movss	.LC1(%rip), %xmm2
	movss	.LC1(%rip), %xmm1
	movss	.LC1(%rip), %xmm0
	call	glClearColor
.LEHE54:
	.loc 21 51 0 discriminator 1
	leaq	-832(%rbp), %rax
	movq	%rax, %rdi
	call	_ZNSaIcEC1Ev
	leaq	-832(%rbp), %rdx
	leaq	-4736(%rbp), %rax
	movl	$.LC42, %esi
	movq	%rax, %rdi
.LEHB55:
	call	_ZNSsC1EPKcRKSaIcE
.LEHE55:
	leaq	-832(%rbp), %rax
	movq	%rax, %rdi
	call	_ZNSaIcED1Ev
	.loc 21 53 0 discriminator 1
	leaq	-832(%rbp), %rax
	movq	%rax, %rdi
	call	_ZNSaIcEC1Ev
	leaq	-832(%rbp), %rdx
	leaq	-4688(%rbp), %rax
	movl	$.LC43, %esi
	movq	%rax, %rdi
.LEHB56:
	call	_ZNSsC1EPKcRKSaIcE
.LEHE56:
	leaq	-1648(%rbp), %rax
	movq	%rax, %rdi
	call	_ZNSaIcEC1Ev
	leaq	-1648(%rbp), %rdx
	leaq	-4704(%rbp), %rax
	movl	$.LC44, %esi
	movq	%rax, %rdi
.LEHB57:
	call	_ZNSsC1EPKcRKSaIcE
.LEHE57:
	.loc 21 53 0 is_stmt 0 discriminator 2
	leaq	-4736(%rbp), %rdx
	leaq	-4720(%rbp), %rax
	movq	%rdx, %rsi
	movq	%rax, %rdi
.LEHB58:
	call	_ZNSsC1ERKSs
.LEHE58:
	.loc 21 53 0 discriminator 3
	leaq	-4688(%rbp), %rcx
	leaq	-4704(%rbp), %rdx
	leaq	-4720(%rbp), %rsi
	leaq	-4560(%rbp), %rax
	movq	%rax, %rdi
.LEHB59:
	call	_ZN4Util6ShaderC1ESsSsSs
.LEHE59:
	.loc 21 53 0 discriminator 4
	leaq	-4720(%rbp), %rax
	movq	%rax, %rdi
	call	_ZNSsD1Ev
	leaq	-4704(%rbp), %rax
	movq	%rax, %rdi
	call	_ZNSsD1Ev
	leaq	-1648(%rbp), %rax
	movq	%rax, %rdi
	call	_ZNSaIcED1Ev
	leaq	-4688(%rbp), %rax
	movq	%rax, %rdi
	call	_ZNSsD1Ev
	leaq	-832(%rbp), %rax
	movq	%rax, %rdi
	call	_ZNSaIcED1Ev
	.loc 21 55 0 is_stmt 1 discriminator 4
	leaq	-832(%rbp), %rax
	movq	%rax, %rdi
	call	_ZNSaIcEC1Ev
	leaq	-832(%rbp), %rdx
	leaq	-4672(%rbp), %rax
	movl	$.LC45, %esi
	movq	%rax, %rdi
.LEHB60:
	call	_ZNSsC1EPKcRKSaIcE
.LEHE60:
	.loc 21 55 0 is_stmt 0 discriminator 1
	leaq	-832(%rbp), %rax
	movq	%rax, %rdi
	call	_ZNSaIcED1Ev
	.loc 21 56 0 is_stmt 1 discriminator 1
	leaq	-832(%rbp), %rax
	movq	%rax, %rdi
	call	_ZNSaIcEC1Ev
	leaq	-832(%rbp), %rdx
	leaq	-4640(%rbp), %rax
	movl	$.LC46, %esi
	movq	%rax, %rdi
.LEHB61:
	call	_ZNSsC1EPKcRKSaIcE
.LEHE61:
	leaq	-4672(%rbp), %rdx
	leaq	-4656(%rbp), %rax
	movq	%rdx, %rsi
	movq	%rax, %rdi
.LEHB62:
	call	_ZNSsC1ERKSs
.LEHE62:
	.loc 21 56 0 is_stmt 0 discriminator 2
	leaq	-4640(%rbp), %rdx
	leaq	-4656(%rbp), %rcx
	leaq	-4832(%rbp), %rax
	movq	%rcx, %rsi
	movq	%rax, %rdi
.LEHB63:
	call	_ZN4Util7TextureC1ESsSs
.LEHE63:
	.loc 21 56 0 discriminator 3
	leaq	-4656(%rbp), %rax
	movq	%rax, %rdi
	call	_ZNSsD1Ev
	leaq	-4640(%rbp), %rax
	movq	%rax, %rdi
	call	_ZNSsD1Ev
	leaq	-832(%rbp), %rax
	movq	%rax, %rdi
	call	_ZNSaIcED1Ev
	.loc 21 57 0 is_stmt 1 discriminator 3
	leaq	-832(%rbp), %rax
	movq	%rax, %rdi
	call	_ZNSaIcEC1Ev
	leaq	-832(%rbp), %rdx
	leaq	-4608(%rbp), %rax
	movl	$.LC47, %esi
	movq	%rax, %rdi
.LEHB64:
	call	_ZNSsC1EPKcRKSaIcE
.LEHE64:
	.loc 21 57 0 is_stmt 0 discriminator 1
	leaq	-4672(%rbp), %rdx
	leaq	-4624(%rbp), %rax
	movq	%rdx, %rsi
	movq	%rax, %rdi
.LEHB65:
	call	_ZNSsC1ERKSs
.LEHE65:
	.loc 21 57 0 discriminator 2
	leaq	-4608(%rbp), %rdx
	leaq	-4624(%rbp), %rcx
	leaq	-4816(%rbp), %rax
	movq	%rcx, %rsi
	movq	%rax, %rdi
.LEHB66:
	call	_ZN4Util7TextureC1ESsSs
.LEHE66:
	.loc 21 57 0 discriminator 3
	leaq	-4624(%rbp), %rax
	movq	%rax, %rdi
	call	_ZNSsD1Ev
	leaq	-4608(%rbp), %rax
	movq	%rax, %rdi
	call	_ZNSsD1Ev
	leaq	-832(%rbp), %rax
	movq	%rax, %rdi
	call	_ZNSaIcED1Ev
	.loc 21 58 0 is_stmt 1 discriminator 3
	leaq	-832(%rbp), %rax
	movq	%rax, %rdi
	call	_ZNSaIcEC1Ev
	leaq	-832(%rbp), %rdx
	leaq	-4576(%rbp), %rax
	movl	$.LC48, %esi
	movq	%rax, %rdi
.LEHB67:
	call	_ZNSsC1EPKcRKSaIcE
.LEHE67:
	.loc 21 58 0 is_stmt 0 discriminator 1
	leaq	-4672(%rbp), %rdx
	leaq	-4592(%rbp), %rax
	movq	%rdx, %rsi
	movq	%rax, %rdi
.LEHB68:
	call	_ZNSsC1ERKSs
.LEHE68:
	.loc 21 58 0 discriminator 2
	leaq	-4576(%rbp), %rdx
	leaq	-4592(%rbp), %rcx
	leaq	-4800(%rbp), %rax
	movq	%rcx, %rsi
	movq	%rax, %rdi
.LEHB69:
	call	_ZN4Util7TextureC1ESsSs
.LEHE69:
	.loc 21 58 0 discriminator 3
	leaq	-4592(%rbp), %rax
	movq	%rax, %rdi
	call	_ZNSsD1Ev
	leaq	-4576(%rbp), %rax
	movq	%rax, %rdi
	call	_ZNSsD1Ev
	leaq	-832(%rbp), %rax
	movq	%rax, %rdi
	call	_ZNSaIcED1Ev
	.loc 21 59 0 is_stmt 1 discriminator 3
	leaq	-832(%rbp), %rax
	movq	%rax, %rdi
	call	_ZNSaIcEC1Ev
	leaq	-832(%rbp), %rdx
	leaq	-4528(%rbp), %rax
	movl	$.LC49, %esi
	movq	%rax, %rdi
.LEHB70:
	call	_ZNSsC1EPKcRKSaIcE
.LEHE70:
	.loc 21 59 0 is_stmt 0 discriminator 1
	leaq	-4672(%rbp), %rdx
	leaq	-4544(%rbp), %rax
	movq	%rdx, %rsi
	movq	%rax, %rdi
.LEHB71:
	call	_ZNSsC1ERKSs
.LEHE71:
	.loc 21 59 0 discriminator 2
	leaq	-4528(%rbp), %rdx
	leaq	-4544(%rbp), %rcx
	leaq	-4784(%rbp), %rax
	movq	%rcx, %rsi
	movq	%rax, %rdi
.LEHB72:
	call	_ZN4Util7TextureC1ESsSs
.LEHE72:
	.loc 21 59 0 discriminator 3
	leaq	-4544(%rbp), %rax
	movq	%rax, %rdi
	call	_ZNSsD1Ev
	leaq	-4528(%rbp), %rax
	movq	%rax, %rdi
	call	_ZNSsD1Ev
	leaq	-832(%rbp), %rax
	movq	%rax, %rdi
	call	_ZNSaIcED1Ev
	.loc 21 60 0 is_stmt 1 discriminator 3
	leaq	-832(%rbp), %rax
	movq	%rax, %rdi
	call	_ZNSaIcEC1Ev
	leaq	-832(%rbp), %rdx
	leaq	-4368(%rbp), %rax
	movl	$.LC50, %esi
	movq	%rax, %rdi
.LEHB73:
	call	_ZNSsC1EPKcRKSaIcE
.LEHE73:
	.loc 21 60 0 is_stmt 0 discriminator 1
	leaq	-4672(%rbp), %rdx
	leaq	-4512(%rbp), %rax
	movq	%rdx, %rsi
	movq	%rax, %rdi
.LEHB74:
	call	_ZNSsC1ERKSs
.LEHE74:
	.loc 21 60 0 discriminator 2
	leaq	-4368(%rbp), %rdx
	leaq	-4512(%rbp), %rcx
	leaq	-4768(%rbp), %rax
	movq	%rcx, %rsi
	movq	%rax, %rdi
.LEHB75:
	call	_ZN4Util7TextureC1ESsSs
.LEHE75:
	.loc 21 60 0 discriminator 3
	leaq	-4512(%rbp), %rax
	movq	%rax, %rdi
	call	_ZNSsD1Ev
	leaq	-4368(%rbp), %rax
	movq	%rax, %rdi
	call	_ZNSsD1Ev
	leaq	-832(%rbp), %rax
	movq	%rax, %rdi
	call	_ZNSaIcED1Ev
	.loc 21 61 0 is_stmt 1 discriminator 3
	leaq	-832(%rbp), %rax
	movq	%rax, %rdi
	call	_ZNSaIcEC1Ev
	leaq	-832(%rbp), %rdx
	leaq	-4240(%rbp), %rax
	movl	$.LC51, %esi
	movq	%rax, %rdi
.LEHB76:
	call	_ZNSsC1EPKcRKSaIcE
.LEHE76:
	.loc 21 61 0 is_stmt 0 discriminator 1
	leaq	-4672(%rbp), %rdx
	leaq	-4304(%rbp), %rax
	movq	%rdx, %rsi
	movq	%rax, %rdi
.LEHB77:
	call	_ZNSsC1ERKSs
.LEHE77:
	.loc 21 61 0 discriminator 2
	leaq	-4240(%rbp), %rdx
	leaq	-4304(%rbp), %rcx
	leaq	-4752(%rbp), %rax
	movq	%rcx, %rsi
	movq	%rax, %rdi
.LEHB78:
	call	_ZN4Util7TextureC1ESsSs
.LEHE78:
	.loc 21 61 0 discriminator 3
	leaq	-4304(%rbp), %rax
	movq	%rax, %rdi
	call	_ZNSsD1Ev
	leaq	-4240(%rbp), %rax
	movq	%rax, %rdi
	call	_ZNSsD1Ev
	leaq	-832(%rbp), %rax
	movq	%rax, %rdi
	call	_ZNSaIcED1Ev
	.loc 21 64 0 is_stmt 1 discriminator 3
	movl	.LC52(%rip), %eax
	movl	%eax, -832(%rbp)
	movl	.LC53(%rip), %eax
	movl	%eax, -1648(%rbp)
	movl	.LC54(%rip), %eax
	movl	%eax, -2464(%rbp)
	movl	.LC55(%rip), %eax
	movl	%eax, -4096(%rbp)
	leaq	-4096(%rbp), %rax
	movq	%rax, %rdi
	call	_ZN3glm7radiansIfEET_RKS1_
	movss	%xmm0, -4840(%rbp)
	movl	-4840(%rbp), %eax
	movl	%eax, -3280(%rbp)
	leaq	-4432(%rbp), %rax
	leaq	-832(%rbp), %rdi
	leaq	-1648(%rbp), %rcx
	leaq	-2464(%rbp), %rdx
	leaq	-3280(%rbp), %rsi
	movq	%rdi, %r8
	movq	%rax, %rdi
.LEHB79:
	call	_ZN3glm11perspectiveIfEENS_6detail7tmat4x4IT_LNS_9precisionE0EEERKS3_S7_S7_S7_
	.loc 21 73 0 discriminator 1
	movl	$3, -1648(%rbp)
	movl	$1, -2464(%rbp)
	movl	$0, -3280(%rbp)
	leaq	-1648(%rbp), %rcx
	leaq	-2464(%rbp), %rdx
	leaq	-3280(%rbp), %rsi
	leaq	-832(%rbp), %rax
	movq	%rax, %rdi
	call	_ZN3glm6detail5tvec3IfLNS_9precisionE0EEC1IiiiEERKT_RKT0_RKT1_
	movq	-4568(%rbp), %rdx
	leaq	-832(%rbp), %rsi
	leaq	-4176(%rbp), %rax
	movq	%rdx, %r8
	movss	.LC56(%rip), %xmm1
	movl	$600, %ecx
	movl	$800, %edx
	movss	.LC57(%rip), %xmm0
	movq	%rax, %rdi
	call	_ZN4Util8FloatCamC1EN3glm6detail5tvec3IfLNS1_9precisionE0EEEfiifP10GLFWwindow
	.loc 21 74 0 discriminator 1
	leaq	-4176(%rbp), %rax
	xorps	%xmm1, %xmm1
	movss	.LC58(%rip), %xmm0
	movq	%rax, %rdi
	call	_ZN4Util8FloatCam14setOrientationEff
	.loc 21 81 0 discriminator 1
	movl	.LC59(%rip), %eax
	movl	%eax, -4496(%rbp)
	movl	.LC60(%rip), %eax
	movl	%eax, -4492(%rbp)
	movl	.LC61(%rip), %eax
	movl	%eax, -4488(%rbp)
	movl	.LC60(%rip), %eax
	movl	%eax, -4484(%rbp)
	movl	.LC61(%rip), %eax
	movl	%eax, -4480(%rbp)
	movl	.LC62(%rip), %eax
	movl	%eax, -4476(%rbp)
	movl	.LC63(%rip), %eax
	movl	%eax, -4472(%rbp)
	movl	.LC64(%rip), %eax
	movl	%eax, -4468(%rbp)
	.loc 21 83 0 discriminator 1
	leaq	-4096(%rbp), %rax
	movq	%rax, %rdi
	call	_ZN5Model5PanelC1Ev
	.loc 21 84 0
	leaq	-4096(%rbp), %rax
	xorps	%xmm3, %xmm3
	xorps	%xmm2, %xmm2
	movss	.LC1(%rip), %xmm1
	movss	.LC65(%rip), %xmm0
	movq	%rax, %rdi
	call	_ZN5Model5Panel11setRotationEffff
	.loc 21 85 0
	leaq	-4096(%rbp), %rax
	movss	.LC66(%rip), %xmm2
	xorps	%xmm1, %xmm1
	movss	.LC67(%rip), %xmm0
	movq	%rax, %rdi
	call	_ZN5Model5Panel14setTranslationEfff
	.loc 21 86 0
	leaq	-4096(%rbp), %rax
	movss	.LC1(%rip), %xmm2
	movss	.LC68(%rip), %xmm1
	movss	.LC69(%rip), %xmm0
	movq	%rax, %rdi
	call	_ZN5Model5Panel8setScaleEfff
	.loc 21 87 0
	movl	-4752(%rbp), %ecx
	movq	-4560(%rbp), %rsi
	movl	-4552(%rbp), %edx
	leaq	-4096(%rbp), %rax
	movq	%rax, %rdi
	call	_ZN5Model5Panel16setShaderTextureEN4Util6ShaderENS1_7TextureE
	.loc 21 88 0
	leaq	-4496(%rbp), %rdx
	leaq	-4096(%rbp), %rax
	movq	%rdx, %rsi
	movq	%rax, %rdi
	call	_ZN5Model5Panel16setUVCoordinatesEPf
	.loc 21 89 0
	leaq	-4096(%rbp), %rax
	movq	%rax, %rdi
	call	_ZN5Model5Panel8finalizeEv
	.loc 21 91 0
	leaq	-3280(%rbp), %rax
	movq	%rax, %rdi
	call	_ZN5Model5PanelC1Ev
	.loc 21 92 0
	leaq	-3280(%rbp), %rax
	movss	.LC31(%rip), %xmm2
	movss	.LC31(%rip), %xmm1
	xorps	%xmm0, %xmm0
	movq	%rax, %rdi
	call	_ZN5Model5Panel14setTranslationEfff
	.loc 21 93 0
	movl	-4800(%rbp), %ecx
	movq	-4560(%rbp), %rsi
	movl	-4552(%rbp), %edx
	leaq	-3280(%rbp), %rax
	movq	%rax, %rdi
	call	_ZN5Model5Panel16setShaderTextureEN4Util6ShaderENS1_7TextureE
	.loc 21 94 0
	leaq	-3280(%rbp), %rax
	movq	%rax, %rdi
	call	_ZN5Model5Panel8finalizeEv
	.loc 21 96 0
	leaq	-2464(%rbp), %rax
	movq	%rax, %rdi
	call	_ZN5Model5PanelC1Ev
	.loc 21 97 0
	leaq	-2464(%rbp), %rax
	xorps	%xmm3, %xmm3
	movss	.LC1(%rip), %xmm2
	xorps	%xmm1, %xmm1
	movss	.LC70(%rip), %xmm0
	movq	%rax, %rdi
	call	_ZN5Model5Panel11setRotationEffff
	.loc 21 98 0
	leaq	-2464(%rbp), %rax
	xorps	%xmm2, %xmm2
	movss	.LC31(%rip), %xmm1
	movss	.LC31(%rip), %xmm0
	movq	%rax, %rdi
	call	_ZN5Model5Panel14setTranslationEfff
	.loc 21 99 0
	movl	-4816(%rbp), %ecx
	movq	-4560(%rbp), %rsi
	movl	-4552(%rbp), %edx
	leaq	-2464(%rbp), %rax
	movq	%rax, %rdi
	call	_ZN5Model5Panel16setShaderTextureEN4Util6ShaderENS1_7TextureE
	.loc 21 100 0
	leaq	-2464(%rbp), %rax
	movq	%rax, %rdi
	call	_ZN5Model5Panel8finalizeEv
	.loc 21 102 0
	leaq	-1648(%rbp), %rax
	movq	%rax, %rdi
	call	_ZN5Model5PanelC1Ev
	.loc 21 103 0
	leaq	-1648(%rbp), %rax
	movss	.LC30(%rip), %xmm2
	movss	.LC31(%rip), %xmm1
	xorps	%xmm0, %xmm0
	movq	%rax, %rdi
	call	_ZN5Model5Panel14setTranslationEfff
	.loc 21 104 0
	movl	-4832(%rbp), %ecx
	movq	-4560(%rbp), %rsi
	movl	-4552(%rbp), %edx
	leaq	-1648(%rbp), %rax
	movq	%rax, %rdi
	call	_ZN5Model5Panel16setShaderTextureEN4Util6ShaderENS1_7TextureE
	.loc 21 105 0
	leaq	-1648(%rbp), %rax
	movq	%rax, %rdi
	call	_ZN5Model5Panel8finalizeEv
	.loc 21 107 0
	leaq	-832(%rbp), %rax
	movq	%rax, %rdi
	call	_ZN5Model5PanelC1Ev
	.loc 21 108 0
	leaq	-832(%rbp), %rax
	xorps	%xmm3, %xmm3
	movss	.LC1(%rip), %xmm2
	xorps	%xmm1, %xmm1
	movss	.LC65(%rip), %xmm0
	movq	%rax, %rdi
	call	_ZN5Model5Panel11setRotationEffff
	.loc 21 109 0
	leaq	-832(%rbp), %rax
	xorps	%xmm2, %xmm2
	movss	.LC31(%rip), %xmm1
	movss	.LC30(%rip), %xmm0
	movq	%rax, %rdi
	call	_ZN5Model5Panel14setTranslationEfff
	.loc 21 110 0
	movl	-4768(%rbp), %ecx
	movq	-4560(%rbp), %rsi
	movl	-4552(%rbp), %edx
	leaq	-832(%rbp), %rax
	movq	%rax, %rdi
	call	_ZN5Model5Panel16setShaderTextureEN4Util6ShaderENS1_7TextureE
	.loc 21 111 0
	leaq	-832(%rbp), %rax
	movq	%rax, %rdi
	call	_ZN5Model5Panel8finalizeEv
	.loc 21 113 0
	leaq	-4464(%rbp), %rax
	movq	%rax, %rdi
	call	_ZN9TimeClassC1Ev
.L255:
.LBB48:
	.loc 21 116 0
	leaq	-4544(%rbp), %rax
	leaq	-4176(%rbp), %rdx
	movq	%rdx, %rsi
	movq	%rax, %rdi
	call	_ZN4Util8FloatCam11getPositionEv
	.loc 21 117 0
	leaq	-4528(%rbp), %rax
	leaq	-4176(%rbp), %rdx
	movq	%rdx, %rsi
	movq	%rax, %rdi
	call	_ZN4Util8FloatCam12getDirectionEv
	.loc 21 119 0
	movss	-4540(%rbp), %xmm0
	unpcklps	%xmm0, %xmm0
	cvtps2pd	%xmm0, %xmm0
	ucomisd	.LC71(%rip), %xmm0
	jbe	.L313
	.loc 21 120 0
	leaq	-4464(%rbp), %rax
	movq	%rax, %rdi
	call	_ZN9TimeClass23getElapsedSecondsUpdateEv
	unpcklpd	%xmm0, %xmm0
	cvtpd2ps	%xmm0, %xmm0
	leaq	-4176(%rbp), %rax
	movq	%rax, %rdi
	call	_ZN4Util8FloatCam6updateEf
	jmp	.L252
.L313:
	.loc 21 122 0
	movabsq	$4594572339843380019, %rax
	movq	%rax, -4304(%rbp)
	leaq	-4544(%rbp), %rax
	leaq	8(%rax), %rcx
	leaq	-4304(%rbp), %rdx
	leaq	-4544(%rbp), %rsi
	leaq	-4240(%rbp), %rax
	movq	%rax, %rdi
	call	_ZN3glm6detail5tvec3IfLNS_9precisionE0EEC1IfdfEERKT_RKT0_RKT1_
	leaq	-4240(%rbp), %rdx
	leaq	-4176(%rbp), %rax
	movq	%rdx, %rsi
	movq	%rax, %rdi
	call	_ZN4Util8FloatCam11setPositionEN3glm6detail5tvec3IfLNS1_9precisionE0EEE
.L252:
	.loc 21 124 0
	leaq	-4528(%rbp), %rdx
	leaq	-4240(%rbp), %rax
	movq	%rdx, %rsi
	movq	%rax, %rdi
	call	_ZN3glm6detail5tvec3IfLNS_9precisionE0EEC1ERKS3_
	leaq	-4544(%rbp), %rdx
	leaq	-4304(%rbp), %rax
	movq	%rdx, %rsi
	movq	%rax, %rdi
	call	_ZN3glm6detail5tvec3IfLNS_9precisionE0EEC1ERKS3_
	leaq	-4512(%rbp), %rax
	leaq	-4240(%rbp), %rdx
	leaq	-4304(%rbp), %rcx
	movq	%rcx, %rsi
	movq	%rax, %rdi
	call	_ZN10Proj_Tools12getIntersectEN3glm6detail5tvec3IfLNS0_9precisionE0EEES4_
	.loc 21 126 0 discriminator 1
	movl	$1, -4304(%rbp)
	leaq	-4304(%rbp), %rdi
	leaq	-4512(%rbp), %rax
	leaq	8(%rax), %rcx
	leaq	-4512(%rbp), %rax
	leaq	4(%rax), %rdx
	leaq	-4512(%rbp), %rsi
	leaq	-4240(%rbp), %rax
	movq	%rdi, %r8
	movq	%rax, %rdi
	call	_ZN3glm6detail5tvec4IfLNS_9precisionE0EEC1IfffiEERKT_RKT0_RKT1_RKT2_
	leaq	-4240(%rbp), %rcx
	leaq	-4096(%rbp), %rax
	movl	$0, %edx
	movq	%rcx, %rsi
	movq	%rax, %rdi
	call	_ZN5Model5Panel14setVec4UniformEN3glm6detail5tvec4IfLNS1_9precisionE0EEEi
	.loc 21 128 0 discriminator 1
	leaq	-4368(%rbp), %rax
	leaq	-4176(%rbp), %rdx
	movq	%rdx, %rsi
	movq	%rax, %rdi
	call	_ZN4Util8FloatCam5getTfEv
	.loc 21 130 0
	leaq	-4432(%rbp), %rdx
	leaq	-4240(%rbp), %rax
	movq	%rdx, %rsi
	movq	%rax, %rdi
	call	_ZN3glm6detail7tmat4x4IfLNS_9precisionE0EEC1ERKS3_
	.loc 21 130 0 is_stmt 0 discriminator 1
	leaq	-4368(%rbp), %rdx
	leaq	-4304(%rbp), %rax
	movq	%rdx, %rsi
	movq	%rax, %rdi
	call	_ZN3glm6detail7tmat4x4IfLNS_9precisionE0EEC1ERKS3_
	.loc 21 130 0 discriminator 2
	leaq	-4240(%rbp), %rdx
	leaq	-4304(%rbp), %rcx
	leaq	-4096(%rbp), %rax
	movq	%rcx, %rsi
	movq	%rax, %rdi
	call	_ZN5Model5Panel17setViewProjectionEN3glm6detail7tmat4x4IfLNS1_9precisionE0EEES5_
	.loc 21 131 0 is_stmt 1 discriminator 1
	leaq	-4432(%rbp), %rdx
	leaq	-4240(%rbp), %rax
	movq	%rdx, %rsi
	movq	%rax, %rdi
	call	_ZN3glm6detail7tmat4x4IfLNS_9precisionE0EEC1ERKS3_
	leaq	-4368(%rbp), %rdx
	leaq	-4304(%rbp), %rax
	movq	%rdx, %rsi
	movq	%rax, %rdi
	call	_ZN3glm6detail7tmat4x4IfLNS_9precisionE0EEC1ERKS3_
	.loc 21 131 0 is_stmt 0 discriminator 2
	leaq	-4240(%rbp), %rdx
	leaq	-4304(%rbp), %rcx
	leaq	-3280(%rbp), %rax
	movq	%rcx, %rsi
	movq	%rax, %rdi
	call	_ZN5Model5Panel17setViewProjectionEN3glm6detail7tmat4x4IfLNS1_9precisionE0EEES5_
	.loc 21 132 0 is_stmt 1 discriminator 1
	leaq	-4432(%rbp), %rdx
	leaq	-4240(%rbp), %rax
	movq	%rdx, %rsi
	movq	%rax, %rdi
	call	_ZN3glm6detail7tmat4x4IfLNS_9precisionE0EEC1ERKS3_
	leaq	-4368(%rbp), %rdx
	leaq	-4304(%rbp), %rax
	movq	%rdx, %rsi
	movq	%rax, %rdi
	call	_ZN3glm6detail7tmat4x4IfLNS_9precisionE0EEC1ERKS3_
	.loc 21 132 0 is_stmt 0 discriminator 2
	leaq	-4240(%rbp), %rdx
	leaq	-4304(%rbp), %rcx
	leaq	-2464(%rbp), %rax
	movq	%rcx, %rsi
	movq	%rax, %rdi
	call	_ZN5Model5Panel17setViewProjectionEN3glm6detail7tmat4x4IfLNS1_9precisionE0EEES5_
	.loc 21 133 0 is_stmt 1 discriminator 1
	leaq	-4432(%rbp), %rdx
	leaq	-4240(%rbp), %rax
	movq	%rdx, %rsi
	movq	%rax, %rdi
	call	_ZN3glm6detail7tmat4x4IfLNS_9precisionE0EEC1ERKS3_
	leaq	-4368(%rbp), %rdx
	leaq	-4304(%rbp), %rax
	movq	%rdx, %rsi
	movq	%rax, %rdi
	call	_ZN3glm6detail7tmat4x4IfLNS_9precisionE0EEC1ERKS3_
	.loc 21 133 0 is_stmt 0 discriminator 2
	leaq	-4240(%rbp), %rdx
	leaq	-4304(%rbp), %rcx
	leaq	-1648(%rbp), %rax
	movq	%rcx, %rsi
	movq	%rax, %rdi
	call	_ZN5Model5Panel17setViewProjectionEN3glm6detail7tmat4x4IfLNS1_9precisionE0EEES5_
	.loc 21 134 0 is_stmt 1 discriminator 1
	leaq	-4432(%rbp), %rdx
	leaq	-4240(%rbp), %rax
	movq	%rdx, %rsi
	movq	%rax, %rdi
	call	_ZN3glm6detail7tmat4x4IfLNS_9precisionE0EEC1ERKS3_
	leaq	-4368(%rbp), %rdx
	leaq	-4304(%rbp), %rax
	movq	%rdx, %rsi
	movq	%rax, %rdi
	call	_ZN3glm6detail7tmat4x4IfLNS_9precisionE0EEC1ERKS3_
	.loc 21 134 0 is_stmt 0 discriminator 2
	leaq	-4240(%rbp), %rdx
	leaq	-4304(%rbp), %rcx
	leaq	-832(%rbp), %rax
	movq	%rcx, %rsi
	movq	%rax, %rdi
	call	_ZN5Model5Panel17setViewProjectionEN3glm6detail7tmat4x4IfLNS1_9precisionE0EEES5_
	.loc 21 136 0 is_stmt 1 discriminator 1
	movl	$16640, %edi
	call	glClear
	.loc 21 140 0
	leaq	-4096(%rbp), %rax
	movq	%rax, %rdi
	call	_ZN5Model5Panel6renderEv
	.loc 21 146 0
	movq	-4568(%rbp), %rax
	movq	%rax, %rdi
	call	glfwSwapBuffers
	.loc 21 147 0
	call	glfwPollEvents
.LBE48:
	.loc 21 149 0
	movq	-4568(%rbp), %rax
	movl	$256, %esi
	movq	%rax, %rdi
	call	glfwGetKey
	cmpl	$1, %eax
	je	.L253
	.loc 21 150 0
	movq	-4568(%rbp), %rax
	movq	%rax, %rdi
	call	glfwWindowShouldClose
	.loc 21 149 0
	testl	%eax, %eax
	jne	.L253
	.loc 21 149 0 is_stmt 0 discriminator 2
	movl	$1, %eax
	jmp	.L254
.L253:
	.loc 21 149 0 discriminator 1
	movl	$0, %eax
.L254:
	.loc 21 115 0 is_stmt 1
	testb	%al, %al
	jne	.L255
	.loc 21 152 0
	call	glfwTerminate
.LEHE79:
	.loc 21 153 0
	movl	$0, %ebx
	.loc 21 55 0
	leaq	-4672(%rbp), %rax
	movq	%rax, %rdi
	call	_ZNSsD1Ev
	.loc 21 153 0
	leaq	-4736(%rbp), %rax
	movq	%rax, %rdi
	call	_ZNSsD1Ev
	movl	%ebx, %eax
	jmp	.L314
.L286:
	movq	%rax, %rbx
	.loc 21 44 0
	leaq	-832(%rbp), %rax
	movq	%rax, %rdi
	call	_ZNSsD1Ev
	jmp	.L258
.L285:
	movq	%rax, %rbx
.L258:
	leaq	-1648(%rbp), %rax
	movq	%rax, %rdi
	call	_ZNSaIcED1Ev
	movq	%rbx, %rax
	movq	%rax, %rdi
.LEHB80:
	call	_Unwind_Resume
.L287:
	movq	%rax, %rbx
	leaq	-832(%rbp), %rax
	movq	%rax, %rdi
	call	_ZNSaIcED1Ev
	movq	%rbx, %rax
	movq	%rax, %rdi
	call	_Unwind_Resume
.L291:
	movq	%rax, %rbx
	.loc 21 53 0
	leaq	-4720(%rbp), %rax
	movq	%rax, %rdi
	call	_ZNSsD1Ev
	jmp	.L261
.L290:
	movq	%rax, %rbx
.L261:
	leaq	-4704(%rbp), %rax
	movq	%rax, %rdi
	call	_ZNSsD1Ev
	jmp	.L262
.L289:
	movq	%rax, %rbx
.L262:
	leaq	-1648(%rbp), %rax
	movq	%rax, %rdi
	call	_ZNSaIcED1Ev
	leaq	-4688(%rbp), %rax
	movq	%rax, %rdi
	call	_ZNSsD1Ev
	jmp	.L263
.L288:
	movq	%rax, %rbx
.L263:
	leaq	-832(%rbp), %rax
	movq	%rax, %rdi
	call	_ZNSaIcED1Ev
	jmp	.L264
.L292:
	movq	%rax, %rbx
	leaq	-832(%rbp), %rax
	movq	%rax, %rdi
	call	_ZNSaIcED1Ev
	jmp	.L264
.L295:
	movq	%rax, %rbx
	.loc 21 56 0
	leaq	-4656(%rbp), %rax
	movq	%rax, %rdi
	call	_ZNSsD1Ev
	jmp	.L267
.L294:
	movq	%rax, %rbx
.L267:
	leaq	-4640(%rbp), %rax
	movq	%rax, %rdi
	call	_ZNSsD1Ev
	jmp	.L268
.L293:
	movq	%rax, %rbx
.L268:
	leaq	-832(%rbp), %rax
	movq	%rax, %rdi
	call	_ZNSaIcED1Ev
	jmp	.L269
.L299:
	movq	%rax, %rbx
	.loc 21 57 0
	leaq	-4624(%rbp), %rax
	movq	%rax, %rdi
	call	_ZNSsD1Ev
	jmp	.L271
.L298:
	movq	%rax, %rbx
.L271:
	leaq	-4608(%rbp), %rax
	movq	%rax, %rdi
	call	_ZNSsD1Ev
	jmp	.L272
.L297:
	movq	%rax, %rbx
.L272:
	leaq	-832(%rbp), %rax
	movq	%rax, %rdi
	call	_ZNSaIcED1Ev
	jmp	.L269
.L302:
	movq	%rax, %rbx
	.loc 21 58 0
	leaq	-4592(%rbp), %rax
	movq	%rax, %rdi
	call	_ZNSsD1Ev
	jmp	.L274
.L301:
	movq	%rax, %rbx
.L274:
	leaq	-4576(%rbp), %rax
	movq	%rax, %rdi
	call	_ZNSsD1Ev
	jmp	.L275
.L300:
	movq	%rax, %rbx
.L275:
	leaq	-832(%rbp), %rax
	movq	%rax, %rdi
	call	_ZNSaIcED1Ev
	jmp	.L269
.L305:
	movq	%rax, %rbx
	.loc 21 59 0
	leaq	-4544(%rbp), %rax
	movq	%rax, %rdi
	call	_ZNSsD1Ev
	jmp	.L277
.L304:
	movq	%rax, %rbx
.L277:
	leaq	-4528(%rbp), %rax
	movq	%rax, %rdi
	call	_ZNSsD1Ev
	jmp	.L278
.L303:
	movq	%rax, %rbx
.L278:
	leaq	-832(%rbp), %rax
	movq	%rax, %rdi
	call	_ZNSaIcED1Ev
	jmp	.L269
.L308:
	movq	%rax, %rbx
	.loc 21 60 0
	leaq	-4512(%rbp), %rax
	movq	%rax, %rdi
	call	_ZNSsD1Ev
	jmp	.L280
.L307:
	movq	%rax, %rbx
.L280:
	leaq	-4368(%rbp), %rax
	movq	%rax, %rdi
	call	_ZNSsD1Ev
	jmp	.L281
.L306:
	movq	%rax, %rbx
.L281:
	leaq	-832(%rbp), %rax
	movq	%rax, %rdi
	call	_ZNSaIcED1Ev
	jmp	.L269
.L311:
	movq	%rax, %rbx
	.loc 21 61 0
	leaq	-4304(%rbp), %rax
	movq	%rax, %rdi
	call	_ZNSsD1Ev
	jmp	.L283
.L310:
	movq	%rax, %rbx
.L283:
	leaq	-4240(%rbp), %rax
	movq	%rax, %rdi
	call	_ZNSsD1Ev
	jmp	.L284
.L309:
	movq	%rax, %rbx
.L284:
	leaq	-832(%rbp), %rax
	movq	%rax, %rdi
	call	_ZNSaIcED1Ev
	jmp	.L269
.L296:
	movq	%rax, %rbx
.L269:
	.loc 21 55 0
	leaq	-4672(%rbp), %rax
	movq	%rax, %rdi
	call	_ZNSsD1Ev
.L264:
	.loc 21 153 0
	leaq	-4736(%rbp), %rax
	movq	%rax, %rdi
	call	_ZNSsD1Ev
	movq	%rbx, %rax
	movq	%rax, %rdi
	call	_Unwind_Resume
.LEHE80:
.L314:
.LBE47:
	.loc 21 154 0
	addq	$4840, %rsp
	popq	%rbx
	popq	%rbp
	.cfi_def_cfa 7, 8
	ret
	.cfi_endproc
.LFE3539:
	.section	.gcc_except_table
.LLSDA3539:
	.byte	0xff
	.byte	0xff
	.byte	0x1
	.uleb128 .LLSDACSE3539-.LLSDACSB3539
.LLSDACSB3539:
	.uleb128 .LEHB52-.LFB3539
	.uleb128 .LEHE52-.LEHB52
	.uleb128 .L285-.LFB3539
	.uleb128 0
	.uleb128 .LEHB53-.LFB3539
	.uleb128 .LEHE53-.LEHB53
	.uleb128 .L286-.LFB3539
	.uleb128 0
	.uleb128 .LEHB54-.LFB3539
	.uleb128 .LEHE54-.LEHB54
	.uleb128 0
	.uleb128 0
	.uleb128 .LEHB55-.LFB3539
	.uleb128 .LEHE55-.LEHB55
	.uleb128 .L287-.LFB3539
	.uleb128 0
	.uleb128 .LEHB56-.LFB3539
	.uleb128 .LEHE56-.LEHB56
	.uleb128 .L288-.LFB3539
	.uleb128 0
	.uleb128 .LEHB57-.LFB3539
	.uleb128 .LEHE57-.LEHB57
	.uleb128 .L289-.LFB3539
	.uleb128 0
	.uleb128 .LEHB58-.LFB3539
	.uleb128 .LEHE58-.LEHB58
	.uleb128 .L290-.LFB3539
	.uleb128 0
	.uleb128 .LEHB59-.LFB3539
	.uleb128 .LEHE59-.LEHB59
	.uleb128 .L291-.LFB3539
	.uleb128 0
	.uleb128 .LEHB60-.LFB3539
	.uleb128 .LEHE60-.LEHB60
	.uleb128 .L292-.LFB3539
	.uleb128 0
	.uleb128 .LEHB61-.LFB3539
	.uleb128 .LEHE61-.LEHB61
	.uleb128 .L293-.LFB3539
	.uleb128 0
	.uleb128 .LEHB62-.LFB3539
	.uleb128 .LEHE62-.LEHB62
	.uleb128 .L294-.LFB3539
	.uleb128 0
	.uleb128 .LEHB63-.LFB3539
	.uleb128 .LEHE63-.LEHB63
	.uleb128 .L295-.LFB3539
	.uleb128 0
	.uleb128 .LEHB64-.LFB3539
	.uleb128 .LEHE64-.LEHB64
	.uleb128 .L297-.LFB3539
	.uleb128 0
	.uleb128 .LEHB65-.LFB3539
	.uleb128 .LEHE65-.LEHB65
	.uleb128 .L298-.LFB3539
	.uleb128 0
	.uleb128 .LEHB66-.LFB3539
	.uleb128 .LEHE66-.LEHB66
	.uleb128 .L299-.LFB3539
	.uleb128 0
	.uleb128 .LEHB67-.LFB3539
	.uleb128 .LEHE67-.LEHB67
	.uleb128 .L300-.LFB3539
	.uleb128 0
	.uleb128 .LEHB68-.LFB3539
	.uleb128 .LEHE68-.LEHB68
	.uleb128 .L301-.LFB3539
	.uleb128 0
	.uleb128 .LEHB69-.LFB3539
	.uleb128 .LEHE69-.LEHB69
	.uleb128 .L302-.LFB3539
	.uleb128 0
	.uleb128 .LEHB70-.LFB3539
	.uleb128 .LEHE70-.LEHB70
	.uleb128 .L303-.LFB3539
	.uleb128 0
	.uleb128 .LEHB71-.LFB3539
	.uleb128 .LEHE71-.LEHB71
	.uleb128 .L304-.LFB3539
	.uleb128 0
	.uleb128 .LEHB72-.LFB3539
	.uleb128 .LEHE72-.LEHB72
	.uleb128 .L305-.LFB3539
	.uleb128 0
	.uleb128 .LEHB73-.LFB3539
	.uleb128 .LEHE73-.LEHB73
	.uleb128 .L306-.LFB3539
	.uleb128 0
	.uleb128 .LEHB74-.LFB3539
	.uleb128 .LEHE74-.LEHB74
	.uleb128 .L307-.LFB3539
	.uleb128 0
	.uleb128 .LEHB75-.LFB3539
	.uleb128 .LEHE75-.LEHB75
	.uleb128 .L308-.LFB3539
	.uleb128 0
	.uleb128 .LEHB76-.LFB3539
	.uleb128 .LEHE76-.LEHB76
	.uleb128 .L309-.LFB3539
	.uleb128 0
	.uleb128 .LEHB77-.LFB3539
	.uleb128 .LEHE77-.LEHB77
	.uleb128 .L310-.LFB3539
	.uleb128 0
	.uleb128 .LEHB78-.LFB3539
	.uleb128 .LEHE78-.LEHB78
	.uleb128 .L311-.LFB3539
	.uleb128 0
	.uleb128 .LEHB79-.LFB3539
	.uleb128 .LEHE79-.LEHB79
	.uleb128 .L296-.LFB3539
	.uleb128 0
	.uleb128 .LEHB80-.LFB3539
	.uleb128 .LEHE80-.LEHB80
	.uleb128 0
	.uleb128 0
.LLSDACSE3539:
	.text
	.size	main, .-main
	.section	.rodata
	.align 8
.LC73:
	.string	"/usr/include/glm/detail/func_exponential.inl"
.LC74:
	.string	"x >= genType(0)"
	.section	.text._ZN3glm4sqrtIfEET_RKS1_,"axG",@progbits,_ZN3glm4sqrtIfEET_RKS1_,comdat
	.weak	_ZN3glm4sqrtIfEET_RKS1_
	.type	_ZN3glm4sqrtIfEET_RKS1_, @function
_ZN3glm4sqrtIfEET_RKS1_:
.LFB3594:
	.loc 4 140 0
	.cfi_startproc
	pushq	%rbp
	.cfi_def_cfa_offset 16
	.cfi_offset 6, -16
	movq	%rsp, %rbp
	.cfi_def_cfa_register 6
	subq	$16, %rsp
	movq	%rdi, -8(%rbp)
.LBB49:
	.loc 4 149 0
	movq	-8(%rbp), %rax
	movss	(%rax), %xmm0
	xorps	%xmm1, %xmm1
	ucomiss	%xmm1, %xmm0
	jnb	.L316
	.loc 4 149 0 is_stmt 0 discriminator 1
	movl	$_ZZN3glm4sqrtIfEET_RKS1_E19__PRETTY_FUNCTION__, %ecx
	movl	$149, %edx
	movl	$.LC73, %esi
	movl	$.LC74, %edi
	call	__assert_fail
.L316:
	.loc 4 151 0 is_stmt 1
	movq	-8(%rbp), %rax
	movl	(%rax), %eax
	movl	%eax, -12(%rbp)
	movss	-12(%rbp), %xmm0
	call	_ZSt4sqrtf
	movss	%xmm0, -12(%rbp)
	movl	-12(%rbp), %eax
.LBE49:
	.loc 4 152 0
	movl	%eax, -12(%rbp)
	movss	-12(%rbp), %xmm0
	leave
	.cfi_def_cfa 7, 8
	ret
	.cfi_endproc
.LFE3594:
	.size	_ZN3glm4sqrtIfEET_RKS1_, .-_ZN3glm4sqrtIfEET_RKS1_
	.section	.text._ZN3glm6detailmlIfLNS_9precisionE0EEENS0_5tvec4IT_XT0_EEERKS5_RKS4_,"axG",@progbits,_ZN3glm6detailmlIfLNS_9precisionE0EEENS0_5tvec4IT_XT0_EEERKS5_RKS4_,comdat
	.weak	_ZN3glm6detailmlIfLNS_9precisionE0EEENS0_5tvec4IT_XT0_EEERKS5_RKS4_
	.type	_ZN3glm6detailmlIfLNS_9precisionE0EEENS0_5tvec4IT_XT0_EEERKS5_RKS4_, @function
_ZN3glm6detailmlIfLNS_9precisionE0EEENS0_5tvec4IT_XT0_EEERKS5_RKS4_:
.LFB3615:
	.file 22 "/usr/include/glm/detail/type_vec4.inl"
	.loc 22 615 0
	.cfi_startproc
	pushq	%rbp
	.cfi_def_cfa_offset 16
	.cfi_offset 6, -16
	movq	%rsp, %rbp
	.cfi_def_cfa_register 6
	subq	$48, %rsp
	movq	%rdi, -24(%rbp)
	movq	%rsi, -32(%rbp)
	movq	%rdx, -40(%rbp)
	.loc 22 625 0
	movq	-32(%rbp), %rax
	movss	12(%rax), %xmm1
	movq	-40(%rbp), %rax
	movss	(%rax), %xmm0
	mulss	%xmm1, %xmm0
	movss	%xmm0, -4(%rbp)
	movq	-32(%rbp), %rax
	movss	8(%rax), %xmm1
	movq	-40(%rbp), %rax
	movss	(%rax), %xmm0
	mulss	%xmm1, %xmm0
	movss	%xmm0, -8(%rbp)
	movq	-32(%rbp), %rax
	movss	4(%rax), %xmm1
	movq	-40(%rbp), %rax
	movss	(%rax), %xmm0
	mulss	%xmm1, %xmm0
	movss	%xmm0, -12(%rbp)
	movq	-32(%rbp), %rax
	movss	(%rax), %xmm1
	movq	-40(%rbp), %rax
	movss	(%rax), %xmm0
	mulss	%xmm1, %xmm0
	movss	%xmm0, -16(%rbp)
	leaq	-4(%rbp), %rdi
	leaq	-8(%rbp), %rcx
	leaq	-12(%rbp), %rdx
	leaq	-16(%rbp), %rsi
	movq	-24(%rbp), %rax
	movq	%rdi, %r8
	movq	%rax, %rdi
	call	_ZN3glm6detail5tvec4IfLNS_9precisionE0EEC1ERKfS5_S5_S5_
	.loc 22 626 0
	movq	-24(%rbp), %rax
	leave
	.cfi_def_cfa 7, 8
	ret
	.cfi_endproc
.LFE3615:
	.size	_ZN3glm6detailmlIfLNS_9precisionE0EEENS0_5tvec4IT_XT0_EEERKS5_RKS4_, .-_ZN3glm6detailmlIfLNS_9precisionE0EEENS0_5tvec4IT_XT0_EEERKS5_RKS4_
	.section	.text._ZN3glm6detail5tvec4IfLNS_9precisionE0EEC2ERKS3_,"axG",@progbits,_ZN3glm6detail5tvec4IfLNS_9precisionE0EEC5ERKS3_,comdat
	.align 2
	.weak	_ZN3glm6detail5tvec4IfLNS_9precisionE0EEC2ERKS3_
	.type	_ZN3glm6detail5tvec4IfLNS_9precisionE0EEC2ERKS3_, @function
_ZN3glm6detail5tvec4IfLNS_9precisionE0EEC2ERKS3_:
.LFB3624:
	.loc 22 67 0
	.cfi_startproc
	pushq	%rbp
	.cfi_def_cfa_offset 16
	.cfi_offset 6, -16
	movq	%rsp, %rbp
	.cfi_def_cfa_register 6
	movq	%rdi, -8(%rbp)
	movq	%rsi, -16(%rbp)
.LBB50:
	.loc 22 71 0
	movq	-16(%rbp), %rax
	movl	(%rax), %eax
	movq	-8(%rbp), %rdx
	movl	%eax, (%rdx)
	movq	-16(%rbp), %rax
	movl	4(%rax), %eax
	movq	-8(%rbp), %rdx
	movl	%eax, 4(%rdx)
	movq	-16(%rbp), %rax
	movl	8(%rax), %eax
	movq	-8(%rbp), %rdx
	movl	%eax, 8(%rdx)
	movq	-16(%rbp), %rax
	movl	12(%rax), %eax
	movq	-8(%rbp), %rdx
	movl	%eax, 12(%rdx)
.LBE50:
	.loc 22 72 0
	popq	%rbp
	.cfi_def_cfa 7, 8
	ret
	.cfi_endproc
.LFE3624:
	.size	_ZN3glm6detail5tvec4IfLNS_9precisionE0EEC2ERKS3_, .-_ZN3glm6detail5tvec4IfLNS_9precisionE0EEC2ERKS3_
	.weak	_ZN3glm6detail5tvec4IfLNS_9precisionE0EEC1ERKS3_
	.set	_ZN3glm6detail5tvec4IfLNS_9precisionE0EEC1ERKS3_,_ZN3glm6detail5tvec4IfLNS_9precisionE0EEC2ERKS3_
	.section	.text._ZStplIcSt11char_traitsIcESaIcEESbIT_T0_T1_ERKS6_S8_,"axG",@progbits,_ZStplIcSt11char_traitsIcESaIcEESbIT_T0_T1_ERKS6_S8_,comdat
	.weak	_ZStplIcSt11char_traitsIcESaIcEESbIT_T0_T1_ERKS6_S8_
	.type	_ZStplIcSt11char_traitsIcESaIcEESbIT_T0_T1_ERKS6_S8_, @function
_ZStplIcSt11char_traitsIcESaIcEESbIT_T0_T1_ERKS6_S8_:
.LFB3698:
	.file 23 "/usr/include/c++/4.8/bits/basic_string.h"
	.loc 23 2365 0
	.cfi_startproc
	.cfi_personality 0x3,__gxx_personality_v0
	.cfi_lsda 0x3,.LLSDA3698
	pushq	%rbp
	.cfi_def_cfa_offset 16
	.cfi_offset 6, -16
	movq	%rsp, %rbp
	.cfi_def_cfa_register 6
	pushq	%rbx
	subq	$40, %rsp
	.cfi_offset 3, -24
	movq	%rdi, -24(%rbp)
	movq	%rsi, -32(%rbp)
	movq	%rdx, -40(%rbp)
.LBB51:
	.loc 23 2368 0
	movq	-32(%rbp), %rdx
	movq	-24(%rbp), %rax
	movq	%rdx, %rsi
	movq	%rax, %rdi
.LEHB81:
	call	_ZNSsC1ERKSs
.LEHE81:
	.loc 23 2369 0
	movq	-40(%rbp), %rdx
	movq	-24(%rbp), %rax
	movq	%rdx, %rsi
	movq	%rax, %rdi
.LEHB82:
	call	_ZNSs6appendERKSs
.LEHE82:
	.loc 23 2370 0
	jmp	.L325
.L324:
	movq	%rax, %rbx
	movq	-24(%rbp), %rax
	movq	%rax, %rdi
	call	_ZNSsD1Ev
	movq	%rbx, %rax
	movq	%rax, %rdi
.LEHB83:
	call	_Unwind_Resume
.LEHE83:
.L325:
.LBE51:
	.loc 23 2371 0
	movq	-24(%rbp), %rax
	addq	$40, %rsp
	popq	%rbx
	popq	%rbp
	.cfi_def_cfa 7, 8
	ret
	.cfi_endproc
.LFE3698:
	.section	.gcc_except_table
.LLSDA3698:
	.byte	0xff
	.byte	0xff
	.byte	0x1
	.uleb128 .LLSDACSE3698-.LLSDACSB3698
.LLSDACSB3698:
	.uleb128 .LEHB81-.LFB3698
	.uleb128 .LEHE81-.LEHB81
	.uleb128 0
	.uleb128 0
	.uleb128 .LEHB82-.LFB3698
	.uleb128 .LEHE82-.LEHB82
	.uleb128 .L324-.LFB3698
	.uleb128 0
	.uleb128 .LEHB83-.LFB3698
	.uleb128 .LEHE83-.LEHB83
	.uleb128 0
	.uleb128 0
.LLSDACSE3698:
	.section	.text._ZStplIcSt11char_traitsIcESaIcEESbIT_T0_T1_ERKS6_S8_,"axG",@progbits,_ZStplIcSt11char_traitsIcESaIcEESbIT_T0_T1_ERKS6_S8_,comdat
	.size	_ZStplIcSt11char_traitsIcESaIcEESbIT_T0_T1_ERKS6_S8_, .-_ZStplIcSt11char_traitsIcESaIcEESbIT_T0_T1_ERKS6_S8_
	.section	.text._ZN3glm6detail5tvec3IfLNS_9precisionE0EEC2Ev,"axG",@progbits,_ZN3glm6detail5tvec3IfLNS_9precisionE0EEC5Ev,comdat
	.align 2
	.weak	_ZN3glm6detail5tvec3IfLNS_9precisionE0EEC2Ev
	.type	_ZN3glm6detail5tvec3IfLNS_9precisionE0EEC2Ev, @function
_ZN3glm6detail5tvec3IfLNS_9precisionE0EEC2Ev:
.LFB3707:
	.file 24 "/usr/include/glm/detail/type_vec3.inl"
	.loc 24 59 0
	.cfi_startproc
	pushq	%rbp
	.cfi_def_cfa_offset 16
	.cfi_offset 6, -16
	movq	%rsp, %rbp
	.cfi_def_cfa_register 6
	movq	%rdi, -8(%rbp)
.LBB52:
	.loc 24 62 0
	movq	-8(%rbp), %rdx
	movl	.LC25(%rip), %eax
	movl	%eax, (%rdx)
	movq	-8(%rbp), %rdx
	movl	.LC25(%rip), %eax
	movl	%eax, 4(%rdx)
	movq	-8(%rbp), %rdx
	movl	.LC25(%rip), %eax
	movl	%eax, 8(%rdx)
.LBE52:
	.loc 24 63 0
	popq	%rbp
	.cfi_def_cfa 7, 8
	ret
	.cfi_endproc
.LFE3707:
	.size	_ZN3glm6detail5tvec3IfLNS_9precisionE0EEC2Ev, .-_ZN3glm6detail5tvec3IfLNS_9precisionE0EEC2Ev
	.weak	_ZN3glm6detail5tvec3IfLNS_9precisionE0EEC1Ev
	.set	_ZN3glm6detail5tvec3IfLNS_9precisionE0EEC1Ev,_ZN3glm6detail5tvec3IfLNS_9precisionE0EEC2Ev
	.section	.text._ZN3glm6detail5tvec3IfLNS_9precisionE0EEC2IiiiEERKT_RKT0_RKT1_,"axG",@progbits,_ZN3glm6detail5tvec3IfLNS_9precisionE0EEC5IiiiEERKT_RKT0_RKT1_,comdat
	.align 2
	.weak	_ZN3glm6detail5tvec3IfLNS_9precisionE0EEC2IiiiEERKT_RKT0_RKT1_
	.type	_ZN3glm6detail5tvec3IfLNS_9precisionE0EEC2IiiiEERKT_RKT0_RKT1_, @function
_ZN3glm6detail5tvec3IfLNS_9precisionE0EEC2IiiiEERKT_RKT0_RKT1_:
.LFB3710:
	.loc 24 123 0
	.cfi_startproc
	pushq	%rbp
	.cfi_def_cfa_offset 16
	.cfi_offset 6, -16
	movq	%rsp, %rbp
	.cfi_def_cfa_register 6
	movq	%rdi, -8(%rbp)
	movq	%rsi, -16(%rbp)
	movq	%rdx, -24(%rbp)
	movq	%rcx, -32(%rbp)
.LBB53:
	.loc 24 131 0
	movq	-16(%rbp), %rax
	movl	(%rax), %eax
	cvtsi2ss	%eax, %xmm0
	movq	-8(%rbp), %rax
	movss	%xmm0, (%rax)
	movq	-24(%rbp), %rax
	movl	(%rax), %eax
	cvtsi2ss	%eax, %xmm0
	movq	-8(%rbp), %rax
	movss	%xmm0, 4(%rax)
	movq	-32(%rbp), %rax
	movl	(%rax), %eax
	cvtsi2ss	%eax, %xmm0
	movq	-8(%rbp), %rax
	movss	%xmm0, 8(%rax)
.LBE53:
	.loc 24 132 0
	popq	%rbp
	.cfi_def_cfa 7, 8
	ret
	.cfi_endproc
.LFE3710:
	.size	_ZN3glm6detail5tvec3IfLNS_9precisionE0EEC2IiiiEERKT_RKT0_RKT1_, .-_ZN3glm6detail5tvec3IfLNS_9precisionE0EEC2IiiiEERKT_RKT0_RKT1_
	.weak	_ZN3glm6detail5tvec3IfLNS_9precisionE0EEC1IiiiEERKT_RKT0_RKT1_
	.set	_ZN3glm6detail5tvec3IfLNS_9precisionE0EEC1IiiiEERKT_RKT0_RKT1_,_ZN3glm6detail5tvec3IfLNS_9precisionE0EEC2IiiiEERKT_RKT0_RKT1_
	.section	.text._ZN3glm6detail5tvec3IfLNS_9precisionE0EEaSERKS3_,"axG",@progbits,_ZN3glm6detail5tvec3IfLNS_9precisionE0EEaSERKS3_,comdat
	.align 2
	.weak	_ZN3glm6detail5tvec3IfLNS_9precisionE0EEaSERKS3_
	.type	_ZN3glm6detail5tvec3IfLNS_9precisionE0EEaSERKS3_, @function
_ZN3glm6detail5tvec3IfLNS_9precisionE0EEaSERKS3_:
.LFB3712:
	.loc 24 187 0
	.cfi_startproc
	pushq	%rbp
	.cfi_def_cfa_offset 16
	.cfi_offset 6, -16
	movq	%rsp, %rbp
	.cfi_def_cfa_register 6
	movq	%rdi, -8(%rbp)
	movq	%rsi, -16(%rbp)
	.loc 24 189 0
	movq	-16(%rbp), %rax
	movl	(%rax), %eax
	movq	-8(%rbp), %rdx
	movl	%eax, (%rdx)
	.loc 24 190 0
	movq	-16(%rbp), %rax
	movl	4(%rax), %eax
	movq	-8(%rbp), %rdx
	movl	%eax, 4(%rdx)
	.loc 24 191 0
	movq	-16(%rbp), %rax
	movl	8(%rax), %eax
	movq	-8(%rbp), %rdx
	movl	%eax, 8(%rdx)
	.loc 24 192 0
	movq	-8(%rbp), %rax
	.loc 24 193 0
	popq	%rbp
	.cfi_def_cfa 7, 8
	ret
	.cfi_endproc
.LFE3712:
	.size	_ZN3glm6detail5tvec3IfLNS_9precisionE0EEaSERKS3_, .-_ZN3glm6detail5tvec3IfLNS_9precisionE0EEaSERKS3_
	.section	.text._ZN3glm6lookAtIfLNS_9precisionE0EEENS_6detail7tmat4x4IT_XT0_EEERKNS2_5tvec3IS4_XT0_EEES9_S9_,"axG",@progbits,_ZN3glm6lookAtIfLNS_9precisionE0EEENS_6detail7tmat4x4IT_XT0_EEERKNS2_5tvec3IS4_XT0_EEES9_S9_,comdat
	.weak	_ZN3glm6lookAtIfLNS_9precisionE0EEENS_6detail7tmat4x4IT_XT0_EEERKNS2_5tvec3IS4_XT0_EEES9_S9_
	.type	_ZN3glm6lookAtIfLNS_9precisionE0EEENS_6detail7tmat4x4IT_XT0_EEERKNS2_5tvec3IS4_XT0_EEES9_S9_, @function
_ZN3glm6lookAtIfLNS_9precisionE0EEENS_6detail7tmat4x4IT_XT0_EEERKNS2_5tvec3IS4_XT0_EEES9_S9_:
.LFB3713:
	.file 25 "/usr/include/glm/gtc/matrix_transform.inl"
	.loc 25 424 0
	.cfi_startproc
	pushq	%rbp
	.cfi_def_cfa_offset 16
	.cfi_offset 6, -16
	movq	%rsp, %rbp
	.cfi_def_cfa_register 6
	pushq	%rbx
	subq	$120, %rsp
	.cfi_offset 3, -24
	movq	%rdi, -88(%rbp)
	movq	%rsi, -96(%rbp)
	movq	%rdx, -104(%rbp)
	movq	%rcx, -112(%rbp)
.LBB54:
	.loc 25 431 0
	leaq	-32(%rbp), %rax
	movq	-96(%rbp), %rdx
	movq	-104(%rbp), %rcx
	movq	%rcx, %rsi
	movq	%rax, %rdi
	call	_ZN3glm6detailmiIfLNS_9precisionE0EEENS0_5tvec3IT_XT0_EEERKS5_S7_
	leaq	-64(%rbp), %rax
	leaq	-32(%rbp), %rdx
	movq	%rdx, %rsi
	movq	%rax, %rdi
	call	_ZN3glm9normalizeIfLNS_9precisionE0EEENS_6detail5tvec3IT_XT0_EEERKS5_
	.loc 25 432 0
	leaq	-32(%rbp), %rax
	movq	-112(%rbp), %rdx
	leaq	-64(%rbp), %rcx
	movq	%rcx, %rsi
	movq	%rax, %rdi
	call	_ZN3glm5crossIfLNS_9precisionE0EEENS_6detail5tvec3IT_XT0_EEERKS5_S7_
	leaq	-48(%rbp), %rax
	leaq	-32(%rbp), %rdx
	movq	%rdx, %rsi
	movq	%rax, %rdi
	call	_ZN3glm9normalizeIfLNS_9precisionE0EEENS_6detail5tvec3IT_XT0_EEERKS5_
	.loc 25 433 0
	leaq	-32(%rbp), %rax
	leaq	-64(%rbp), %rdx
	leaq	-48(%rbp), %rcx
	movq	%rcx, %rsi
	movq	%rax, %rdi
	call	_ZN3glm5crossIfLNS_9precisionE0EEENS_6detail5tvec3IT_XT0_EEERKS5_S7_
	.loc 25 435 0
	movl	.LC1(%rip), %eax
	movl	%eax, -68(%rbp)
	leaq	-68(%rbp), %rdx
	movq	-88(%rbp), %rax
	movq	%rdx, %rsi
	movq	%rax, %rdi
	call	_ZN3glm6detail7tmat4x4IfLNS_9precisionE0EEC1ERKf
	.loc 25 436 0
	movq	-88(%rbp), %rax
	movl	$0, %esi
	movq	%rax, %rdi
	call	_ZN3glm6detail7tmat4x4IfLNS_9precisionE0EEixEi
	movl	$0, %esi
	movq	%rax, %rdi
	call	_ZN3glm6detail5tvec4IfLNS_9precisionE0EEixEi
	movq	%rax, %rdx
	movl	-48(%rbp), %eax
	movl	%eax, (%rdx)
	.loc 25 437 0
	movq	-88(%rbp), %rax
	movl	$1, %esi
	movq	%rax, %rdi
	call	_ZN3glm6detail7tmat4x4IfLNS_9precisionE0EEixEi
	movl	$0, %esi
	movq	%rax, %rdi
	call	_ZN3glm6detail5tvec4IfLNS_9precisionE0EEixEi
	movq	%rax, %rdx
	movl	-44(%rbp), %eax
	movl	%eax, (%rdx)
	.loc 25 438 0
	movq	-88(%rbp), %rax
	movl	$2, %esi
	movq	%rax, %rdi
	call	_ZN3glm6detail7tmat4x4IfLNS_9precisionE0EEixEi
	movl	$0, %esi
	movq	%rax, %rdi
	call	_ZN3glm6detail5tvec4IfLNS_9precisionE0EEixEi
	movq	%rax, %rdx
	movl	-40(%rbp), %eax
	movl	%eax, (%rdx)
	.loc 25 439 0
	movq	-88(%rbp), %rax
	movl	$0, %esi
	movq	%rax, %rdi
	call	_ZN3glm6detail7tmat4x4IfLNS_9precisionE0EEixEi
	movl	$1, %esi
	movq	%rax, %rdi
	call	_ZN3glm6detail5tvec4IfLNS_9precisionE0EEixEi
	movq	%rax, %rdx
	movl	-32(%rbp), %eax
	movl	%eax, (%rdx)
	.loc 25 440 0
	movq	-88(%rbp), %rax
	movl	$1, %esi
	movq	%rax, %rdi
	call	_ZN3glm6detail7tmat4x4IfLNS_9precisionE0EEixEi
	movl	$1, %esi
	movq	%rax, %rdi
	call	_ZN3glm6detail5tvec4IfLNS_9precisionE0EEixEi
	movq	%rax, %rdx
	movl	-28(%rbp), %eax
	movl	%eax, (%rdx)
	.loc 25 441 0
	movq	-88(%rbp), %rax
	movl	$2, %esi
	movq	%rax, %rdi
	call	_ZN3glm6detail7tmat4x4IfLNS_9precisionE0EEixEi
	movl	$1, %esi
	movq	%rax, %rdi
	call	_ZN3glm6detail5tvec4IfLNS_9precisionE0EEixEi
	movq	%rax, %rdx
	movl	-24(%rbp), %eax
	movl	%eax, (%rdx)
	.loc 25 442 0
	movq	-88(%rbp), %rax
	movl	$0, %esi
	movq	%rax, %rdi
	call	_ZN3glm6detail7tmat4x4IfLNS_9precisionE0EEixEi
	movl	$2, %esi
	movq	%rax, %rdi
	call	_ZN3glm6detail5tvec4IfLNS_9precisionE0EEixEi
	movss	-64(%rbp), %xmm1
	movss	.LC75(%rip), %xmm0
	xorps	%xmm1, %xmm0
	movss	%xmm0, (%rax)
	.loc 25 443 0
	movq	-88(%rbp), %rax
	movl	$1, %esi
	movq	%rax, %rdi
	call	_ZN3glm6detail7tmat4x4IfLNS_9precisionE0EEixEi
	movl	$2, %esi
	movq	%rax, %rdi
	call	_ZN3glm6detail5tvec4IfLNS_9precisionE0EEixEi
	movss	-60(%rbp), %xmm1
	movss	.LC75(%rip), %xmm0
	xorps	%xmm1, %xmm0
	movss	%xmm0, (%rax)
	.loc 25 444 0
	movq	-88(%rbp), %rax
	movl	$2, %esi
	movq	%rax, %rdi
	call	_ZN3glm6detail7tmat4x4IfLNS_9precisionE0EEixEi
	movl	$2, %esi
	movq	%rax, %rdi
	call	_ZN3glm6detail5tvec4IfLNS_9precisionE0EEixEi
	movss	-56(%rbp), %xmm1
	movss	.LC75(%rip), %xmm0
	xorps	%xmm1, %xmm0
	movss	%xmm0, (%rax)
	.loc 25 445 0
	movq	-88(%rbp), %rax
	movl	$3, %esi
	movq	%rax, %rdi
	call	_ZN3glm6detail7tmat4x4IfLNS_9precisionE0EEixEi
	movl	$0, %esi
	movq	%rax, %rdi
	call	_ZN3glm6detail5tvec4IfLNS_9precisionE0EEixEi
	movq	%rax, %rbx
	movq	-96(%rbp), %rdx
	leaq	-48(%rbp), %rax
	movq	%rdx, %rsi
	movq	%rax, %rdi
	call	_ZN3glm3dotIfLNS_9precisionE0ENS_6detail5tvec3EEET_RKT1_IS4_XT0_EES8_
	movss	.LC75(%rip), %xmm1
	xorps	%xmm1, %xmm0
	movss	%xmm0, (%rbx)
	.loc 25 446 0
	movq	-88(%rbp), %rax
	movl	$3, %esi
	movq	%rax, %rdi
	call	_ZN3glm6detail7tmat4x4IfLNS_9precisionE0EEixEi
	movl	$1, %esi
	movq	%rax, %rdi
	call	_ZN3glm6detail5tvec4IfLNS_9precisionE0EEixEi
	movq	%rax, %rbx
	movq	-96(%rbp), %rdx
	leaq	-32(%rbp), %rax
	movq	%rdx, %rsi
	movq	%rax, %rdi
	call	_ZN3glm3dotIfLNS_9precisionE0ENS_6detail5tvec3EEET_RKT1_IS4_XT0_EES8_
	movss	.LC75(%rip), %xmm1
	xorps	%xmm1, %xmm0
	movss	%xmm0, (%rbx)
	.loc 25 447 0
	movq	-88(%rbp), %rax
	movl	$3, %esi
	movq	%rax, %rdi
	call	_ZN3glm6detail7tmat4x4IfLNS_9precisionE0EEixEi
	movl	$2, %esi
	movq	%rax, %rdi
	call	_ZN3glm6detail5tvec4IfLNS_9precisionE0EEixEi
	movq	%rax, %rbx
	movq	-96(%rbp), %rdx
	leaq	-64(%rbp), %rax
	movq	%rdx, %rsi
	movq	%rax, %rdi
	call	_ZN3glm3dotIfLNS_9precisionE0ENS_6detail5tvec3EEET_RKT1_IS4_XT0_EES8_
	movss	%xmm0, -116(%rbp)
	movl	-116(%rbp), %eax
	movl	%eax, (%rbx)
	.loc 25 448 0
	nop
.LBE54:
	.loc 25 449 0
	movq	-88(%rbp), %rax
	addq	$120, %rsp
	popq	%rbx
	popq	%rbp
	.cfi_def_cfa 7, 8
	ret
	.cfi_endproc
.LFE3713:
	.size	_ZN3glm6lookAtIfLNS_9precisionE0EEENS_6detail7tmat4x4IT_XT0_EEERKNS2_5tvec3IS4_XT0_EEES9_S9_, .-_ZN3glm6lookAtIfLNS_9precisionE0EEENS_6detail7tmat4x4IT_XT0_EEERKNS2_5tvec3IS4_XT0_EEES9_S9_
	.section	.text._ZN3glm6detail7tmat4x4IfLNS_9precisionE0EEC2ERKS3_,"axG",@progbits,_ZN3glm6detail7tmat4x4IfLNS_9precisionE0EEC5ERKS3_,comdat
	.align 2
	.weak	_ZN3glm6detail7tmat4x4IfLNS_9precisionE0EEC2ERKS3_
	.type	_ZN3glm6detail7tmat4x4IfLNS_9precisionE0EEC2ERKS3_, @function
_ZN3glm6detail7tmat4x4IfLNS_9precisionE0EEC2ERKS3_:
.LFB3715:
	.file 26 "/usr/include/glm/detail/type_mat4x4.inl"
	.loc 26 78 0
	.cfi_startproc
	pushq	%rbp
	.cfi_def_cfa_offset 16
	.cfi_offset 6, -16
	movq	%rsp, %rbp
	.cfi_def_cfa_register 6
	pushq	%r12
	pushq	%rbx
	subq	$16, %rsp
	.cfi_offset 12, -24
	.cfi_offset 3, -32
	movq	%rdi, -24(%rbp)
	movq	%rsi, -32(%rbp)
.LBB55:
	.loc 26 81 0
	movq	-24(%rbp), %rax
	movl	$3, %ebx
	movq	%rax, %r12
	jmp	.L333
.L334:
	.loc 26 81 0 is_stmt 0 discriminator 2
	movq	%r12, %rdi
	call	_ZN3glm6detail5tvec4IfLNS_9precisionE0EEC1Ev
	addq	$16, %r12
	subq	$1, %rbx
.L333:
	.loc 26 81 0 discriminator 1
	cmpq	$-1, %rbx
	jne	.L334
	.loc 26 83 0 is_stmt 1 discriminator 3
	movq	-32(%rbp), %rax
	movl	$0, %esi
	movq	%rax, %rdi
	call	_ZNK3glm6detail7tmat4x4IfLNS_9precisionE0EEixEi
	movq	%rax, %rdx
	movq	-24(%rbp), %rax
	movq	%rdx, %rsi
	movq	%rax, %rdi
	call	_ZN3glm6detail5tvec4IfLNS_9precisionE0EEaSERKS3_
	.loc 26 84 0 discriminator 3
	movq	-32(%rbp), %rax
	movl	$1, %esi
	movq	%rax, %rdi
	call	_ZNK3glm6detail7tmat4x4IfLNS_9precisionE0EEixEi
	movq	-24(%rbp), %rdx
	addq	$16, %rdx
	movq	%rax, %rsi
	movq	%rdx, %rdi
	call	_ZN3glm6detail5tvec4IfLNS_9precisionE0EEaSERKS3_
	.loc 26 85 0 discriminator 3
	movq	-32(%rbp), %rax
	movl	$2, %esi
	movq	%rax, %rdi
	call	_ZNK3glm6detail7tmat4x4IfLNS_9precisionE0EEixEi
	movq	-24(%rbp), %rdx
	addq	$32, %rdx
	movq	%rax, %rsi
	movq	%rdx, %rdi
	call	_ZN3glm6detail5tvec4IfLNS_9precisionE0EEaSERKS3_
	.loc 26 86 0 discriminator 3
	movq	-32(%rbp), %rax
	movl	$3, %esi
	movq	%rax, %rdi
	call	_ZNK3glm6detail7tmat4x4IfLNS_9precisionE0EEixEi
	movq	-24(%rbp), %rdx
	addq	$48, %rdx
	movq	%rax, %rsi
	movq	%rdx, %rdi
	call	_ZN3glm6detail5tvec4IfLNS_9precisionE0EEaSERKS3_
.LBE55:
	.loc 26 87 0 discriminator 3
	addq	$16, %rsp
	popq	%rbx
	popq	%r12
	popq	%rbp
	.cfi_def_cfa 7, 8
	ret
	.cfi_endproc
.LFE3715:
	.size	_ZN3glm6detail7tmat4x4IfLNS_9precisionE0EEC2ERKS3_, .-_ZN3glm6detail7tmat4x4IfLNS_9precisionE0EEC2ERKS3_
	.weak	_ZN3glm6detail7tmat4x4IfLNS_9precisionE0EEC1ERKS3_
	.set	_ZN3glm6detail7tmat4x4IfLNS_9precisionE0EEC1ERKS3_,_ZN3glm6detail7tmat4x4IfLNS_9precisionE0EEC2ERKS3_
	.section	.text._ZN3glm6detail5tvec3IfLNS_9precisionE0EEC2ERKS3_,"axG",@progbits,_ZN3glm6detail5tvec3IfLNS_9precisionE0EEC5ERKS3_,comdat
	.align 2
	.weak	_ZN3glm6detail5tvec3IfLNS_9precisionE0EEC2ERKS3_
	.type	_ZN3glm6detail5tvec3IfLNS_9precisionE0EEC2ERKS3_, @function
_ZN3glm6detail5tvec3IfLNS_9precisionE0EEC2ERKS3_:
.LFB3718:
	.loc 24 66 0
	.cfi_startproc
	pushq	%rbp
	.cfi_def_cfa_offset 16
	.cfi_offset 6, -16
	movq	%rsp, %rbp
	.cfi_def_cfa_register 6
	movq	%rdi, -8(%rbp)
	movq	%rsi, -16(%rbp)
.LBB56:
	.loc 24 69 0
	movq	-16(%rbp), %rax
	movl	(%rax), %eax
	movq	-8(%rbp), %rdx
	movl	%eax, (%rdx)
	movq	-16(%rbp), %rax
	movl	4(%rax), %eax
	movq	-8(%rbp), %rdx
	movl	%eax, 4(%rdx)
	movq	-16(%rbp), %rax
	movl	8(%rax), %eax
	movq	-8(%rbp), %rdx
	movl	%eax, 8(%rdx)
.LBE56:
	.loc 24 70 0
	popq	%rbp
	.cfi_def_cfa 7, 8
	ret
	.cfi_endproc
.LFE3718:
	.size	_ZN3glm6detail5tvec3IfLNS_9precisionE0EEC2ERKS3_, .-_ZN3glm6detail5tvec3IfLNS_9precisionE0EEC2ERKS3_
	.weak	_ZN3glm6detail5tvec3IfLNS_9precisionE0EEC1ERKS3_
	.set	_ZN3glm6detail5tvec3IfLNS_9precisionE0EEC1ERKS3_,_ZN3glm6detail5tvec3IfLNS_9precisionE0EEC2ERKS3_
	.section	.text._ZN3glm6detail5tvec3IfLNS_9precisionE0EEC2IdddEERKT_RKT0_RKT1_,"axG",@progbits,_ZN3glm6detail5tvec3IfLNS_9precisionE0EEC5IdddEERKT_RKT0_RKT1_,comdat
	.align 2
	.weak	_ZN3glm6detail5tvec3IfLNS_9precisionE0EEC2IdddEERKT_RKT0_RKT1_
	.type	_ZN3glm6detail5tvec3IfLNS_9precisionE0EEC2IdddEERKT_RKT0_RKT1_, @function
_ZN3glm6detail5tvec3IfLNS_9precisionE0EEC2IdddEERKT_RKT0_RKT1_:
.LFB3721:
	.loc 24 123 0
	.cfi_startproc
	pushq	%rbp
	.cfi_def_cfa_offset 16
	.cfi_offset 6, -16
	movq	%rsp, %rbp
	.cfi_def_cfa_register 6
	movq	%rdi, -8(%rbp)
	movq	%rsi, -16(%rbp)
	movq	%rdx, -24(%rbp)
	movq	%rcx, -32(%rbp)
.LBB57:
	.loc 24 131 0
	movq	-16(%rbp), %rax
	movsd	(%rax), %xmm0
	unpcklpd	%xmm0, %xmm0
	cvtpd2ps	%xmm0, %xmm0
	movq	-8(%rbp), %rax
	movss	%xmm0, (%rax)
	movq	-24(%rbp), %rax
	movsd	(%rax), %xmm0
	unpcklpd	%xmm0, %xmm0
	cvtpd2ps	%xmm0, %xmm0
	movq	-8(%rbp), %rax
	movss	%xmm0, 4(%rax)
	movq	-32(%rbp), %rax
	movsd	(%rax), %xmm0
	unpcklpd	%xmm0, %xmm0
	cvtpd2ps	%xmm0, %xmm0
	movq	-8(%rbp), %rax
	movss	%xmm0, 8(%rax)
.LBE57:
	.loc 24 132 0
	popq	%rbp
	.cfi_def_cfa 7, 8
	ret
	.cfi_endproc
.LFE3721:
	.size	_ZN3glm6detail5tvec3IfLNS_9precisionE0EEC2IdddEERKT_RKT0_RKT1_, .-_ZN3glm6detail5tvec3IfLNS_9precisionE0EEC2IdddEERKT_RKT0_RKT1_
	.weak	_ZN3glm6detail5tvec3IfLNS_9precisionE0EEC1IdddEERKT_RKT0_RKT1_
	.set	_ZN3glm6detail5tvec3IfLNS_9precisionE0EEC1IdddEERKT_RKT0_RKT1_,_ZN3glm6detail5tvec3IfLNS_9precisionE0EEC2IdddEERKT_RKT0_RKT1_
	.section	.text._ZN3glm6detail5tvec3IfLNS_9precisionE0EEC2IdidEERKT_RKT0_RKT1_,"axG",@progbits,_ZN3glm6detail5tvec3IfLNS_9precisionE0EEC5IdidEERKT_RKT0_RKT1_,comdat
	.align 2
	.weak	_ZN3glm6detail5tvec3IfLNS_9precisionE0EEC2IdidEERKT_RKT0_RKT1_
	.type	_ZN3glm6detail5tvec3IfLNS_9precisionE0EEC2IdidEERKT_RKT0_RKT1_, @function
_ZN3glm6detail5tvec3IfLNS_9precisionE0EEC2IdidEERKT_RKT0_RKT1_:
.LFB3724:
	.loc 24 123 0
	.cfi_startproc
	pushq	%rbp
	.cfi_def_cfa_offset 16
	.cfi_offset 6, -16
	movq	%rsp, %rbp
	.cfi_def_cfa_register 6
	movq	%rdi, -8(%rbp)
	movq	%rsi, -16(%rbp)
	movq	%rdx, -24(%rbp)
	movq	%rcx, -32(%rbp)
.LBB58:
	.loc 24 131 0
	movq	-16(%rbp), %rax
	movsd	(%rax), %xmm0
	unpcklpd	%xmm0, %xmm0
	cvtpd2ps	%xmm0, %xmm0
	movq	-8(%rbp), %rax
	movss	%xmm0, (%rax)
	movq	-24(%rbp), %rax
	movl	(%rax), %eax
	cvtsi2ss	%eax, %xmm0
	movq	-8(%rbp), %rax
	movss	%xmm0, 4(%rax)
	movq	-32(%rbp), %rax
	movsd	(%rax), %xmm0
	unpcklpd	%xmm0, %xmm0
	cvtpd2ps	%xmm0, %xmm0
	movq	-8(%rbp), %rax
	movss	%xmm0, 8(%rax)
.LBE58:
	.loc 24 132 0
	popq	%rbp
	.cfi_def_cfa 7, 8
	ret
	.cfi_endproc
.LFE3724:
	.size	_ZN3glm6detail5tvec3IfLNS_9precisionE0EEC2IdidEERKT_RKT0_RKT1_, .-_ZN3glm6detail5tvec3IfLNS_9precisionE0EEC2IdidEERKT_RKT0_RKT1_
	.weak	_ZN3glm6detail5tvec3IfLNS_9precisionE0EEC1IdidEERKT_RKT0_RKT1_
	.set	_ZN3glm6detail5tvec3IfLNS_9precisionE0EEC1IdidEERKT_RKT0_RKT1_,_ZN3glm6detail5tvec3IfLNS_9precisionE0EEC2IdidEERKT_RKT0_RKT1_
	.section	.text._ZN3glm6detailmlIfLNS_9precisionE0EEENS0_5tvec3IT_XT0_EEERKS5_RKS4_,"axG",@progbits,_ZN3glm6detailmlIfLNS_9precisionE0EEENS0_5tvec3IT_XT0_EEERKS5_RKS4_,comdat
	.weak	_ZN3glm6detailmlIfLNS_9precisionE0EEENS0_5tvec3IT_XT0_EEERKS5_RKS4_
	.type	_ZN3glm6detailmlIfLNS_9precisionE0EEENS0_5tvec3IT_XT0_EEERKS5_RKS4_, @function
_ZN3glm6detailmlIfLNS_9precisionE0EEENS0_5tvec3IT_XT0_EEERKS5_RKS4_:
.LFB3726:
	.loc 24 552 0
	.cfi_startproc
	pushq	%rbp
	.cfi_def_cfa_offset 16
	.cfi_offset 6, -16
	movq	%rsp, %rbp
	.cfi_def_cfa_register 6
	subq	$48, %rsp
	movq	%rdi, -24(%rbp)
	movq	%rsi, -32(%rbp)
	movq	%rdx, -40(%rbp)
	.loc 24 561 0
	movq	-32(%rbp), %rax
	movss	8(%rax), %xmm1
	movq	-40(%rbp), %rax
	movss	(%rax), %xmm0
	mulss	%xmm1, %xmm0
	movss	%xmm0, -4(%rbp)
	movq	-32(%rbp), %rax
	movss	4(%rax), %xmm1
	movq	-40(%rbp), %rax
	movss	(%rax), %xmm0
	mulss	%xmm1, %xmm0
	movss	%xmm0, -8(%rbp)
	movq	-32(%rbp), %rax
	movss	(%rax), %xmm1
	movq	-40(%rbp), %rax
	movss	(%rax), %xmm0
	mulss	%xmm1, %xmm0
	movss	%xmm0, -12(%rbp)
	leaq	-4(%rbp), %rcx
	leaq	-8(%rbp), %rdx
	leaq	-12(%rbp), %rsi
	movq	-24(%rbp), %rax
	movq	%rax, %rdi
	call	_ZN3glm6detail5tvec3IfLNS_9precisionE0EEC1ERKfS5_S5_
	.loc 24 562 0
	movq	-24(%rbp), %rax
	leave
	.cfi_def_cfa 7, 8
	ret
	.cfi_endproc
.LFE3726:
	.size	_ZN3glm6detailmlIfLNS_9precisionE0EEENS0_5tvec3IT_XT0_EEERKS5_RKS4_, .-_ZN3glm6detailmlIfLNS_9precisionE0EEENS0_5tvec3IT_XT0_EEERKS5_RKS4_
	.section	.text._ZN3glm6detail5tvec3IfLNS_9precisionE0EEpLIfEERS3_RKNS1_IT_LS2_0EEE,"axG",@progbits,_ZN3glm6detail5tvec3IfLNS_9precisionE0EEpLIfEERS3_RKNS1_IT_LS2_0EEE,comdat
	.align 2
	.weak	_ZN3glm6detail5tvec3IfLNS_9precisionE0EEpLIfEERS3_RKNS1_IT_LS2_0EEE
	.type	_ZN3glm6detail5tvec3IfLNS_9precisionE0EEpLIfEERS3_RKNS1_IT_LS2_0EEE, @function
_ZN3glm6detail5tvec3IfLNS_9precisionE0EEpLIfEERS3_RKNS1_IT_LS2_0EEE:
.LFB3727:
	.loc 24 217 0
	.cfi_startproc
	pushq	%rbp
	.cfi_def_cfa_offset 16
	.cfi_offset 6, -16
	movq	%rsp, %rbp
	.cfi_def_cfa_register 6
	movq	%rdi, -8(%rbp)
	movq	%rsi, -16(%rbp)
	.loc 24 219 0
	movq	-8(%rbp), %rax
	movss	(%rax), %xmm1
	movq	-16(%rbp), %rax
	movss	(%rax), %xmm0
	addss	%xmm1, %xmm0
	movq	-8(%rbp), %rax
	movss	%xmm0, (%rax)
	.loc 24 220 0
	movq	-8(%rbp), %rax
	movss	4(%rax), %xmm1
	movq	-16(%rbp), %rax
	movss	4(%rax), %xmm0
	addss	%xmm1, %xmm0
	movq	-8(%rbp), %rax
	movss	%xmm0, 4(%rax)
	.loc 24 221 0
	movq	-8(%rbp), %rax
	movss	8(%rax), %xmm1
	movq	-16(%rbp), %rax
	movss	8(%rax), %xmm0
	addss	%xmm1, %xmm0
	movq	-8(%rbp), %rax
	movss	%xmm0, 8(%rax)
	.loc 24 222 0
	movq	-8(%rbp), %rax
	.loc 24 223 0
	popq	%rbp
	.cfi_def_cfa 7, 8
	ret
	.cfi_endproc
.LFE3727:
	.size	_ZN3glm6detail5tvec3IfLNS_9precisionE0EEpLIfEERS3_RKNS1_IT_LS2_0EEE, .-_ZN3glm6detail5tvec3IfLNS_9precisionE0EEpLIfEERS3_RKNS1_IT_LS2_0EEE
	.section	.text._ZN3glm6detail5tvec3IfLNS_9precisionE0EEmIIfEERS3_RKNS1_IT_LS2_0EEE,"axG",@progbits,_ZN3glm6detail5tvec3IfLNS_9precisionE0EEmIIfEERS3_RKNS1_IT_LS2_0EEE,comdat
	.align 2
	.weak	_ZN3glm6detail5tvec3IfLNS_9precisionE0EEmIIfEERS3_RKNS1_IT_LS2_0EEE
	.type	_ZN3glm6detail5tvec3IfLNS_9precisionE0EEmIIfEERS3_RKNS1_IT_LS2_0EEE, @function
_ZN3glm6detail5tvec3IfLNS_9precisionE0EEmIIfEERS3_RKNS1_IT_LS2_0EEE:
.LFB3728:
	.loc 24 237 0
	.cfi_startproc
	pushq	%rbp
	.cfi_def_cfa_offset 16
	.cfi_offset 6, -16
	movq	%rsp, %rbp
	.cfi_def_cfa_register 6
	movq	%rdi, -8(%rbp)
	movq	%rsi, -16(%rbp)
	.loc 24 239 0
	movq	-8(%rbp), %rax
	movss	(%rax), %xmm0
	movq	-16(%rbp), %rax
	movss	(%rax), %xmm1
	subss	%xmm1, %xmm0
	movq	-8(%rbp), %rax
	movss	%xmm0, (%rax)
	.loc 24 240 0
	movq	-8(%rbp), %rax
	movss	4(%rax), %xmm0
	movq	-16(%rbp), %rax
	movss	4(%rax), %xmm1
	subss	%xmm1, %xmm0
	movq	-8(%rbp), %rax
	movss	%xmm0, 4(%rax)
	.loc 24 241 0
	movq	-8(%rbp), %rax
	movss	8(%rax), %xmm0
	movq	-16(%rbp), %rax
	movss	8(%rax), %xmm1
	subss	%xmm1, %xmm0
	movq	-8(%rbp), %rax
	movss	%xmm0, 8(%rax)
	.loc 24 242 0
	movq	-8(%rbp), %rax
	.loc 24 243 0
	popq	%rbp
	.cfi_def_cfa 7, 8
	ret
	.cfi_endproc
.LFE3728:
	.size	_ZN3glm6detail5tvec3IfLNS_9precisionE0EEmIIfEERS3_RKNS1_IT_LS2_0EEE, .-_ZN3glm6detail5tvec3IfLNS_9precisionE0EEmIIfEERS3_RKNS1_IT_LS2_0EEE
	.section	.text._ZN3glm6detailplIfLNS_9precisionE0EEENS0_5tvec3IT_XT0_EEERKS5_S7_,"axG",@progbits,_ZN3glm6detailplIfLNS_9precisionE0EEENS0_5tvec3IT_XT0_EEERKS5_S7_,comdat
	.weak	_ZN3glm6detailplIfLNS_9precisionE0EEENS0_5tvec3IT_XT0_EEERKS5_S7_
	.type	_ZN3glm6detailplIfLNS_9precisionE0EEENS0_5tvec3IT_XT0_EEERKS5_S7_, @function
_ZN3glm6detailplIfLNS_9precisionE0EEENS0_5tvec3IT_XT0_EEERKS5_S7_:
.LFB3729:
	.loc 24 498 0
	.cfi_startproc
	pushq	%rbp
	.cfi_def_cfa_offset 16
	.cfi_offset 6, -16
	movq	%rsp, %rbp
	.cfi_def_cfa_register 6
	subq	$48, %rsp
	movq	%rdi, -24(%rbp)
	movq	%rsi, -32(%rbp)
	movq	%rdx, -40(%rbp)
	.loc 24 507 0
	movq	-32(%rbp), %rax
	movss	8(%rax), %xmm1
	movq	-40(%rbp), %rax
	movss	8(%rax), %xmm0
	addss	%xmm1, %xmm0
	movss	%xmm0, -4(%rbp)
	movq	-32(%rbp), %rax
	movss	4(%rax), %xmm1
	movq	-40(%rbp), %rax
	movss	4(%rax), %xmm0
	addss	%xmm1, %xmm0
	movss	%xmm0, -8(%rbp)
	movq	-32(%rbp), %rax
	movss	(%rax), %xmm1
	movq	-40(%rbp), %rax
	movss	(%rax), %xmm0
	addss	%xmm1, %xmm0
	movss	%xmm0, -12(%rbp)
	leaq	-4(%rbp), %rcx
	leaq	-8(%rbp), %rdx
	leaq	-12(%rbp), %rsi
	movq	-24(%rbp), %rax
	movq	%rax, %rdi
	call	_ZN3glm6detail5tvec3IfLNS_9precisionE0EEC1ERKfS5_S5_
	.loc 24 508 0
	movq	-24(%rbp), %rax
	leave
	.cfi_def_cfa 7, 8
	ret
	.cfi_endproc
.LFE3729:
	.size	_ZN3glm6detailplIfLNS_9precisionE0EEENS0_5tvec3IT_XT0_EEERKS5_S7_, .-_ZN3glm6detailplIfLNS_9precisionE0EEENS0_5tvec3IT_XT0_EEERKS5_S7_
	.section	.text._ZN3glm6detail7tmat4x4IfLNS_9precisionE0EEC2Ev,"axG",@progbits,_ZN3glm6detail7tmat4x4IfLNS_9precisionE0EEC5Ev,comdat
	.align 2
	.weak	_ZN3glm6detail7tmat4x4IfLNS_9precisionE0EEC2Ev
	.type	_ZN3glm6detail7tmat4x4IfLNS_9precisionE0EEC2Ev, @function
_ZN3glm6detail7tmat4x4IfLNS_9precisionE0EEC2Ev:
.LFB3731:
	.loc 26 67 0
	.cfi_startproc
	pushq	%rbp
	.cfi_def_cfa_offset 16
	.cfi_offset 6, -16
	movq	%rsp, %rbp
	.cfi_def_cfa_register 6
	pushq	%r12
	pushq	%rbx
	subq	$48, %rsp
	.cfi_offset 12, -24
	.cfi_offset 3, -32
	movq	%rdi, -56(%rbp)
.LBB59:
	.loc 26 67 0
	movq	-56(%rbp), %rax
	movl	$3, %ebx
	movq	%rax, %r12
	jmp	.L347
.L348:
	.loc 26 67 0 is_stmt 0 discriminator 2
	movq	%r12, %rdi
	call	_ZN3glm6detail5tvec4IfLNS_9precisionE0EEC1Ev
	addq	$16, %r12
	subq	$1, %rbx
.L347:
	.loc 26 67 0 discriminator 1
	cmpq	$-1, %rbx
	jne	.L348
.LBB60:
	.loc 26 69 0 is_stmt 1 discriminator 3
	movl	.LC25(%rip), %eax
	movl	%eax, -40(%rbp)
	.loc 26 70 0 discriminator 3
	movl	.LC1(%rip), %eax
	movl	%eax, -36(%rbp)
	.loc 26 71 0 discriminator 3
	leaq	-40(%rbp), %rdi
	leaq	-40(%rbp), %rcx
	leaq	-40(%rbp), %rdx
	leaq	-36(%rbp), %rsi
	leaq	-32(%rbp), %rax
	movq	%rdi, %r8
	movq	%rax, %rdi
	call	_ZN3glm6detail5tvec4IfLNS_9precisionE0EEC1ERKfS5_S5_S5_
	movq	-56(%rbp), %rax
	leaq	-32(%rbp), %rdx
	movq	%rdx, %rsi
	movq	%rax, %rdi
	call	_ZN3glm6detail5tvec4IfLNS_9precisionE0EEaSERKS3_
	.loc 26 72 0 discriminator 3
	leaq	-40(%rbp), %rdi
	leaq	-40(%rbp), %rcx
	leaq	-36(%rbp), %rdx
	leaq	-40(%rbp), %rsi
	leaq	-32(%rbp), %rax
	movq	%rdi, %r8
	movq	%rax, %rdi
	call	_ZN3glm6detail5tvec4IfLNS_9precisionE0EEC1ERKfS5_S5_S5_
	movq	-56(%rbp), %rax
	leaq	16(%rax), %rdx
	leaq	-32(%rbp), %rax
	movq	%rax, %rsi
	movq	%rdx, %rdi
	call	_ZN3glm6detail5tvec4IfLNS_9precisionE0EEaSERKS3_
	.loc 26 73 0 discriminator 3
	leaq	-40(%rbp), %rdi
	leaq	-36(%rbp), %rcx
	leaq	-40(%rbp), %rdx
	leaq	-40(%rbp), %rsi
	leaq	-32(%rbp), %rax
	movq	%rdi, %r8
	movq	%rax, %rdi
	call	_ZN3glm6detail5tvec4IfLNS_9precisionE0EEC1ERKfS5_S5_S5_
	movq	-56(%rbp), %rax
	leaq	32(%rax), %rdx
	leaq	-32(%rbp), %rax
	movq	%rax, %rsi
	movq	%rdx, %rdi
	call	_ZN3glm6detail5tvec4IfLNS_9precisionE0EEaSERKS3_
	.loc 26 74 0 discriminator 3
	leaq	-36(%rbp), %rdi
	leaq	-40(%rbp), %rcx
	leaq	-40(%rbp), %rdx
	leaq	-40(%rbp), %rsi
	leaq	-32(%rbp), %rax
	movq	%rdi, %r8
	movq	%rax, %rdi
	call	_ZN3glm6detail5tvec4IfLNS_9precisionE0EEC1ERKfS5_S5_S5_
	movq	-56(%rbp), %rax
	leaq	48(%rax), %rdx
	leaq	-32(%rbp), %rax
	movq	%rax, %rsi
	movq	%rdx, %rdi
	call	_ZN3glm6detail5tvec4IfLNS_9precisionE0EEaSERKS3_
.LBE60:
.LBE59:
	.loc 26 75 0 discriminator 3
	addq	$48, %rsp
	popq	%rbx
	popq	%r12
	popq	%rbp
	.cfi_def_cfa 7, 8
	ret
	.cfi_endproc
.LFE3731:
	.size	_ZN3glm6detail7tmat4x4IfLNS_9precisionE0EEC2Ev, .-_ZN3glm6detail7tmat4x4IfLNS_9precisionE0EEC2Ev
	.weak	_ZN3glm6detail7tmat4x4IfLNS_9precisionE0EEC1Ev
	.set	_ZN3glm6detail7tmat4x4IfLNS_9precisionE0EEC1Ev,_ZN3glm6detail7tmat4x4IfLNS_9precisionE0EEC2Ev
	.section	.text._ZN3glm6detail5tvec4IfLNS_9precisionE0EEC2Ev,"axG",@progbits,_ZN3glm6detail5tvec4IfLNS_9precisionE0EEC5Ev,comdat
	.align 2
	.weak	_ZN3glm6detail5tvec4IfLNS_9precisionE0EEC2Ev
	.type	_ZN3glm6detail5tvec4IfLNS_9precisionE0EEC2Ev, @function
_ZN3glm6detail5tvec4IfLNS_9precisionE0EEC2Ev:
.LFB3734:
	.loc 22 59 0
	.cfi_startproc
	pushq	%rbp
	.cfi_def_cfa_offset 16
	.cfi_offset 6, -16
	movq	%rsp, %rbp
	.cfi_def_cfa_register 6
	movq	%rdi, -8(%rbp)
.LBB61:
	.loc 22 63 0
	movq	-8(%rbp), %rdx
	movl	.LC25(%rip), %eax
	movl	%eax, (%rdx)
	movq	-8(%rbp), %rdx
	movl	.LC25(%rip), %eax
	movl	%eax, 4(%rdx)
	movq	-8(%rbp), %rdx
	movl	.LC25(%rip), %eax
	movl	%eax, 8(%rdx)
	movq	-8(%rbp), %rdx
	movl	.LC25(%rip), %eax
	movl	%eax, 12(%rdx)
.LBE61:
	.loc 22 64 0
	popq	%rbp
	.cfi_def_cfa 7, 8
	ret
	.cfi_endproc
.LFE3734:
	.size	_ZN3glm6detail5tvec4IfLNS_9precisionE0EEC2Ev, .-_ZN3glm6detail5tvec4IfLNS_9precisionE0EEC2Ev
	.weak	_ZN3glm6detail5tvec4IfLNS_9precisionE0EEC1Ev
	.set	_ZN3glm6detail5tvec4IfLNS_9precisionE0EEC1Ev,_ZN3glm6detail5tvec4IfLNS_9precisionE0EEC2Ev
	.section	.text._ZN3glm6detail7tmat4x4IfLNS_9precisionE0EEaSERKS3_,"axG",@progbits,_ZN3glm6detail7tmat4x4IfLNS_9precisionE0EEaSERKS3_,comdat
	.align 2
	.weak	_ZN3glm6detail7tmat4x4IfLNS_9precisionE0EEaSERKS3_
	.type	_ZN3glm6detail7tmat4x4IfLNS_9precisionE0EEaSERKS3_, @function
_ZN3glm6detail7tmat4x4IfLNS_9precisionE0EEaSERKS3_:
.LFB3736:
	.loc 26 357 0
	.cfi_startproc
	pushq	%rbp
	.cfi_def_cfa_offset 16
	.cfi_offset 6, -16
	movq	%rsp, %rbp
	.cfi_def_cfa_register 6
	subq	$16, %rsp
	movq	%rdi, -8(%rbp)
	movq	%rsi, -16(%rbp)
	.loc 26 364 0
	movq	-16(%rbp), %rax
	movl	$0, %esi
	movq	%rax, %rdi
	call	_ZNK3glm6detail7tmat4x4IfLNS_9precisionE0EEixEi
	movq	%rax, %rdx
	movq	-8(%rbp), %rax
	movq	%rdx, %rsi
	movq	%rax, %rdi
	call	_ZN3glm6detail5tvec4IfLNS_9precisionE0EEaSERKS3_
	.loc 26 365 0
	movq	-16(%rbp), %rax
	movl	$1, %esi
	movq	%rax, %rdi
	call	_ZNK3glm6detail7tmat4x4IfLNS_9precisionE0EEixEi
	movq	-8(%rbp), %rdx
	addq	$16, %rdx
	movq	%rax, %rsi
	movq	%rdx, %rdi
	call	_ZN3glm6detail5tvec4IfLNS_9precisionE0EEaSERKS3_
	.loc 26 366 0
	movq	-16(%rbp), %rax
	movl	$2, %esi
	movq	%rax, %rdi
	call	_ZNK3glm6detail7tmat4x4IfLNS_9precisionE0EEixEi
	movq	-8(%rbp), %rdx
	addq	$32, %rdx
	movq	%rax, %rsi
	movq	%rdx, %rdi
	call	_ZN3glm6detail5tvec4IfLNS_9precisionE0EEaSERKS3_
	.loc 26 367 0
	movq	-16(%rbp), %rax
	movl	$3, %esi
	movq	%rax, %rdi
	call	_ZNK3glm6detail7tmat4x4IfLNS_9precisionE0EEixEi
	movq	-8(%rbp), %rdx
	addq	$48, %rdx
	movq	%rax, %rsi
	movq	%rdx, %rdi
	call	_ZN3glm6detail5tvec4IfLNS_9precisionE0EEaSERKS3_
	.loc 26 368 0
	movq	-8(%rbp), %rax
	.loc 26 369 0
	leave
	.cfi_def_cfa 7, 8
	ret
	.cfi_endproc
.LFE3736:
	.size	_ZN3glm6detail7tmat4x4IfLNS_9precisionE0EEaSERKS3_, .-_ZN3glm6detail7tmat4x4IfLNS_9precisionE0EEaSERKS3_
	.section	.text._ZN3glm6detailmlIfLNS_9precisionE0EEENS0_7tmat4x4IT_XT0_EEERKS5_S7_,"axG",@progbits,_ZN3glm6detailmlIfLNS_9precisionE0EEENS0_7tmat4x4IT_XT0_EEERKS5_S7_,comdat
	.weak	_ZN3glm6detailmlIfLNS_9precisionE0EEENS0_7tmat4x4IT_XT0_EEERKS5_S7_
	.type	_ZN3glm6detailmlIfLNS_9precisionE0EEENS0_7tmat4x4IT_XT0_EEERKS5_S7_, @function
_ZN3glm6detailmlIfLNS_9precisionE0EEENS0_7tmat4x4IT_XT0_EEERKS5_S7_:
.LFB3737:
	.loc 26 780 0
	.cfi_startproc
	pushq	%rbp
	.cfi_def_cfa_offset 16
	.cfi_offset 6, -16
	movq	%rsp, %rbp
	.cfi_def_cfa_register 6
	subq	$272, %rsp
	movq	%rdi, -248(%rbp)
	movq	%rsi, -256(%rbp)
	movq	%rdx, -264(%rbp)
.LBB62:
	.loc 26 786 0
	movq	-256(%rbp), %rax
	movl	$0, %esi
	movq	%rax, %rdi
	call	_ZNK3glm6detail7tmat4x4IfLNS_9precisionE0EEixEi
	movq	%rax, %rdx
	leaq	-240(%rbp), %rax
	movq	%rdx, %rsi
	movq	%rax, %rdi
	call	_ZN3glm6detail5tvec4IfLNS_9precisionE0EEC1ERKS3_
	.loc 26 787 0
	movq	-256(%rbp), %rax
	movl	$1, %esi
	movq	%rax, %rdi
	call	_ZNK3glm6detail7tmat4x4IfLNS_9precisionE0EEixEi
	movq	%rax, %rdx
	leaq	-224(%rbp), %rax
	movq	%rdx, %rsi
	movq	%rax, %rdi
	call	_ZN3glm6detail5tvec4IfLNS_9precisionE0EEC1ERKS3_
	.loc 26 788 0
	movq	-256(%rbp), %rax
	movl	$2, %esi
	movq	%rax, %rdi
	call	_ZNK3glm6detail7tmat4x4IfLNS_9precisionE0EEixEi
	movq	%rax, %rdx
	leaq	-208(%rbp), %rax
	movq	%rdx, %rsi
	movq	%rax, %rdi
	call	_ZN3glm6detail5tvec4IfLNS_9precisionE0EEC1ERKS3_
	.loc 26 789 0
	movq	-256(%rbp), %rax
	movl	$3, %esi
	movq	%rax, %rdi
	call	_ZNK3glm6detail7tmat4x4IfLNS_9precisionE0EEixEi
	movq	%rax, %rdx
	leaq	-192(%rbp), %rax
	movq	%rdx, %rsi
	movq	%rax, %rdi
	call	_ZN3glm6detail5tvec4IfLNS_9precisionE0EEC1ERKS3_
	.loc 26 791 0
	movq	-264(%rbp), %rax
	movl	$0, %esi
	movq	%rax, %rdi
	call	_ZNK3glm6detail7tmat4x4IfLNS_9precisionE0EEixEi
	movq	%rax, %rdx
	leaq	-176(%rbp), %rax
	movq	%rdx, %rsi
	movq	%rax, %rdi
	call	_ZN3glm6detail5tvec4IfLNS_9precisionE0EEC1ERKS3_
	.loc 26 792 0
	movq	-264(%rbp), %rax
	movl	$1, %esi
	movq	%rax, %rdi
	call	_ZNK3glm6detail7tmat4x4IfLNS_9precisionE0EEixEi
	movq	%rax, %rdx
	leaq	-160(%rbp), %rax
	movq	%rdx, %rsi
	movq	%rax, %rdi
	call	_ZN3glm6detail5tvec4IfLNS_9precisionE0EEC1ERKS3_
	.loc 26 793 0
	movq	-264(%rbp), %rax
	movl	$2, %esi
	movq	%rax, %rdi
	call	_ZNK3glm6detail7tmat4x4IfLNS_9precisionE0EEixEi
	movq	%rax, %rdx
	leaq	-144(%rbp), %rax
	movq	%rdx, %rsi
	movq	%rax, %rdi
	call	_ZN3glm6detail5tvec4IfLNS_9precisionE0EEC1ERKS3_
	.loc 26 794 0
	movq	-264(%rbp), %rax
	movl	$3, %esi
	movq	%rax, %rdi
	call	_ZNK3glm6detail7tmat4x4IfLNS_9precisionE0EEixEi
	movq	%rax, %rdx
	leaq	-128(%rbp), %rax
	movq	%rdx, %rsi
	movq	%rax, %rdi
	call	_ZN3glm6detail5tvec4IfLNS_9precisionE0EEC1ERKS3_
	.loc 26 796 0
	movq	-248(%rbp), %rax
	movl	$0, %esi
	movq	%rax, %rdi
	call	_ZN3glm6detail7tmat4x4IfLNS_9precisionE0EEC1ENS3_4ctorE
	.loc 26 797 0
	leaq	-176(%rbp), %rax
	movl	$3, %esi
	movq	%rax, %rdi
	call	_ZNK3glm6detail5tvec4IfLNS_9precisionE0EEixEi
	movq	%rax, %rdx
	leaq	-112(%rbp), %rax
	leaq	-192(%rbp), %rcx
	movq	%rcx, %rsi
	movq	%rax, %rdi
	call	_ZN3glm6detailmlIfLNS_9precisionE0EEENS0_5tvec4IT_XT0_EEERKS5_RKS4_
	leaq	-176(%rbp), %rax
	movl	$2, %esi
	movq	%rax, %rdi
	call	_ZNK3glm6detail5tvec4IfLNS_9precisionE0EEixEi
	movq	%rax, %rdx
	leaq	-96(%rbp), %rax
	leaq	-208(%rbp), %rcx
	movq	%rcx, %rsi
	movq	%rax, %rdi
	call	_ZN3glm6detailmlIfLNS_9precisionE0EEENS0_5tvec4IT_XT0_EEERKS5_RKS4_
	leaq	-176(%rbp), %rax
	movl	$1, %esi
	movq	%rax, %rdi
	call	_ZNK3glm6detail5tvec4IfLNS_9precisionE0EEixEi
	movq	%rax, %rdx
	leaq	-80(%rbp), %rax
	leaq	-224(%rbp), %rcx
	movq	%rcx, %rsi
	movq	%rax, %rdi
	call	_ZN3glm6detailmlIfLNS_9precisionE0EEENS0_5tvec4IT_XT0_EEERKS5_RKS4_
	leaq	-176(%rbp), %rax
	movl	$0, %esi
	movq	%rax, %rdi
	call	_ZNK3glm6detail5tvec4IfLNS_9precisionE0EEixEi
	movq	%rax, %rdx
	leaq	-64(%rbp), %rax
	leaq	-240(%rbp), %rcx
	movq	%rcx, %rsi
	movq	%rax, %rdi
	call	_ZN3glm6detailmlIfLNS_9precisionE0EEENS0_5tvec4IT_XT0_EEERKS5_RKS4_
	leaq	-48(%rbp), %rax
	leaq	-80(%rbp), %rdx
	leaq	-64(%rbp), %rcx
	movq	%rcx, %rsi
	movq	%rax, %rdi
	call	_ZN3glm6detailplIfLNS_9precisionE0EEENS0_5tvec4IT_XT0_EEERKS5_S7_
	leaq	-32(%rbp), %rax
	leaq	-96(%rbp), %rdx
	leaq	-48(%rbp), %rcx
	movq	%rcx, %rsi
	movq	%rax, %rdi
	call	_ZN3glm6detailplIfLNS_9precisionE0EEENS0_5tvec4IT_XT0_EEERKS5_S7_
	leaq	-16(%rbp), %rax
	leaq	-112(%rbp), %rdx
	leaq	-32(%rbp), %rcx
	movq	%rcx, %rsi
	movq	%rax, %rdi
	call	_ZN3glm6detailplIfLNS_9precisionE0EEENS0_5tvec4IT_XT0_EEERKS5_S7_
	movq	-248(%rbp), %rax
	movl	$0, %esi
	movq	%rax, %rdi
	call	_ZN3glm6detail7tmat4x4IfLNS_9precisionE0EEixEi
	leaq	-16(%rbp), %rdx
	movq	%rdx, %rsi
	movq	%rax, %rdi
	call	_ZN3glm6detail5tvec4IfLNS_9precisionE0EEaSERKS3_
	.loc 26 798 0
	leaq	-160(%rbp), %rax
	movl	$3, %esi
	movq	%rax, %rdi
	call	_ZNK3glm6detail5tvec4IfLNS_9precisionE0EEixEi
	movq	%rax, %rdx
	leaq	-112(%rbp), %rax
	leaq	-192(%rbp), %rcx
	movq	%rcx, %rsi
	movq	%rax, %rdi
	call	_ZN3glm6detailmlIfLNS_9precisionE0EEENS0_5tvec4IT_XT0_EEERKS5_RKS4_
	leaq	-160(%rbp), %rax
	movl	$2, %esi
	movq	%rax, %rdi
	call	_ZNK3glm6detail5tvec4IfLNS_9precisionE0EEixEi
	movq	%rax, %rdx
	leaq	-96(%rbp), %rax
	leaq	-208(%rbp), %rcx
	movq	%rcx, %rsi
	movq	%rax, %rdi
	call	_ZN3glm6detailmlIfLNS_9precisionE0EEENS0_5tvec4IT_XT0_EEERKS5_RKS4_
	leaq	-160(%rbp), %rax
	movl	$1, %esi
	movq	%rax, %rdi
	call	_ZNK3glm6detail5tvec4IfLNS_9precisionE0EEixEi
	movq	%rax, %rdx
	leaq	-80(%rbp), %rax
	leaq	-224(%rbp), %rcx
	movq	%rcx, %rsi
	movq	%rax, %rdi
	call	_ZN3glm6detailmlIfLNS_9precisionE0EEENS0_5tvec4IT_XT0_EEERKS5_RKS4_
	leaq	-160(%rbp), %rax
	movl	$0, %esi
	movq	%rax, %rdi
	call	_ZNK3glm6detail5tvec4IfLNS_9precisionE0EEixEi
	movq	%rax, %rdx
	leaq	-64(%rbp), %rax
	leaq	-240(%rbp), %rcx
	movq	%rcx, %rsi
	movq	%rax, %rdi
	call	_ZN3glm6detailmlIfLNS_9precisionE0EEENS0_5tvec4IT_XT0_EEERKS5_RKS4_
	leaq	-48(%rbp), %rax
	leaq	-80(%rbp), %rdx
	leaq	-64(%rbp), %rcx
	movq	%rcx, %rsi
	movq	%rax, %rdi
	call	_ZN3glm6detailplIfLNS_9precisionE0EEENS0_5tvec4IT_XT0_EEERKS5_S7_
	leaq	-32(%rbp), %rax
	leaq	-96(%rbp), %rdx
	leaq	-48(%rbp), %rcx
	movq	%rcx, %rsi
	movq	%rax, %rdi
	call	_ZN3glm6detailplIfLNS_9precisionE0EEENS0_5tvec4IT_XT0_EEERKS5_S7_
	leaq	-16(%rbp), %rax
	leaq	-112(%rbp), %rdx
	leaq	-32(%rbp), %rcx
	movq	%rcx, %rsi
	movq	%rax, %rdi
	call	_ZN3glm6detailplIfLNS_9precisionE0EEENS0_5tvec4IT_XT0_EEERKS5_S7_
	movq	-248(%rbp), %rax
	movl	$1, %esi
	movq	%rax, %rdi
	call	_ZN3glm6detail7tmat4x4IfLNS_9precisionE0EEixEi
	leaq	-16(%rbp), %rdx
	movq	%rdx, %rsi
	movq	%rax, %rdi
	call	_ZN3glm6detail5tvec4IfLNS_9precisionE0EEaSERKS3_
	.loc 26 799 0
	leaq	-144(%rbp), %rax
	movl	$3, %esi
	movq	%rax, %rdi
	call	_ZNK3glm6detail5tvec4IfLNS_9precisionE0EEixEi
	movq	%rax, %rdx
	leaq	-112(%rbp), %rax
	leaq	-192(%rbp), %rcx
	movq	%rcx, %rsi
	movq	%rax, %rdi
	call	_ZN3glm6detailmlIfLNS_9precisionE0EEENS0_5tvec4IT_XT0_EEERKS5_RKS4_
	leaq	-144(%rbp), %rax
	movl	$2, %esi
	movq	%rax, %rdi
	call	_ZNK3glm6detail5tvec4IfLNS_9precisionE0EEixEi
	movq	%rax, %rdx
	leaq	-96(%rbp), %rax
	leaq	-208(%rbp), %rcx
	movq	%rcx, %rsi
	movq	%rax, %rdi
	call	_ZN3glm6detailmlIfLNS_9precisionE0EEENS0_5tvec4IT_XT0_EEERKS5_RKS4_
	leaq	-144(%rbp), %rax
	movl	$1, %esi
	movq	%rax, %rdi
	call	_ZNK3glm6detail5tvec4IfLNS_9precisionE0EEixEi
	movq	%rax, %rdx
	leaq	-80(%rbp), %rax
	leaq	-224(%rbp), %rcx
	movq	%rcx, %rsi
	movq	%rax, %rdi
	call	_ZN3glm6detailmlIfLNS_9precisionE0EEENS0_5tvec4IT_XT0_EEERKS5_RKS4_
	leaq	-144(%rbp), %rax
	movl	$0, %esi
	movq	%rax, %rdi
	call	_ZNK3glm6detail5tvec4IfLNS_9precisionE0EEixEi
	movq	%rax, %rdx
	leaq	-64(%rbp), %rax
	leaq	-240(%rbp), %rcx
	movq	%rcx, %rsi
	movq	%rax, %rdi
	call	_ZN3glm6detailmlIfLNS_9precisionE0EEENS0_5tvec4IT_XT0_EEERKS5_RKS4_
	leaq	-48(%rbp), %rax
	leaq	-80(%rbp), %rdx
	leaq	-64(%rbp), %rcx
	movq	%rcx, %rsi
	movq	%rax, %rdi
	call	_ZN3glm6detailplIfLNS_9precisionE0EEENS0_5tvec4IT_XT0_EEERKS5_S7_
	leaq	-32(%rbp), %rax
	leaq	-96(%rbp), %rdx
	leaq	-48(%rbp), %rcx
	movq	%rcx, %rsi
	movq	%rax, %rdi
	call	_ZN3glm6detailplIfLNS_9precisionE0EEENS0_5tvec4IT_XT0_EEERKS5_S7_
	leaq	-16(%rbp), %rax
	leaq	-112(%rbp), %rdx
	leaq	-32(%rbp), %rcx
	movq	%rcx, %rsi
	movq	%rax, %rdi
	call	_ZN3glm6detailplIfLNS_9precisionE0EEENS0_5tvec4IT_XT0_EEERKS5_S7_
	movq	-248(%rbp), %rax
	movl	$2, %esi
	movq	%rax, %rdi
	call	_ZN3glm6detail7tmat4x4IfLNS_9precisionE0EEixEi
	leaq	-16(%rbp), %rdx
	movq	%rdx, %rsi
	movq	%rax, %rdi
	call	_ZN3glm6detail5tvec4IfLNS_9precisionE0EEaSERKS3_
	.loc 26 800 0
	leaq	-128(%rbp), %rax
	movl	$3, %esi
	movq	%rax, %rdi
	call	_ZNK3glm6detail5tvec4IfLNS_9precisionE0EEixEi
	movq	%rax, %rdx
	leaq	-112(%rbp), %rax
	leaq	-192(%rbp), %rcx
	movq	%rcx, %rsi
	movq	%rax, %rdi
	call	_ZN3glm6detailmlIfLNS_9precisionE0EEENS0_5tvec4IT_XT0_EEERKS5_RKS4_
	leaq	-128(%rbp), %rax
	movl	$2, %esi
	movq	%rax, %rdi
	call	_ZNK3glm6detail5tvec4IfLNS_9precisionE0EEixEi
	movq	%rax, %rdx
	leaq	-96(%rbp), %rax
	leaq	-208(%rbp), %rcx
	movq	%rcx, %rsi
	movq	%rax, %rdi
	call	_ZN3glm6detailmlIfLNS_9precisionE0EEENS0_5tvec4IT_XT0_EEERKS5_RKS4_
	leaq	-128(%rbp), %rax
	movl	$1, %esi
	movq	%rax, %rdi
	call	_ZNK3glm6detail5tvec4IfLNS_9precisionE0EEixEi
	movq	%rax, %rdx
	leaq	-80(%rbp), %rax
	leaq	-224(%rbp), %rcx
	movq	%rcx, %rsi
	movq	%rax, %rdi
	call	_ZN3glm6detailmlIfLNS_9precisionE0EEENS0_5tvec4IT_XT0_EEERKS5_RKS4_
	leaq	-128(%rbp), %rax
	movl	$0, %esi
	movq	%rax, %rdi
	call	_ZNK3glm6detail5tvec4IfLNS_9precisionE0EEixEi
	movq	%rax, %rdx
	leaq	-64(%rbp), %rax
	leaq	-240(%rbp), %rcx
	movq	%rcx, %rsi
	movq	%rax, %rdi
	call	_ZN3glm6detailmlIfLNS_9precisionE0EEENS0_5tvec4IT_XT0_EEERKS5_RKS4_
	leaq	-48(%rbp), %rax
	leaq	-80(%rbp), %rdx
	leaq	-64(%rbp), %rcx
	movq	%rcx, %rsi
	movq	%rax, %rdi
	call	_ZN3glm6detailplIfLNS_9precisionE0EEENS0_5tvec4IT_XT0_EEERKS5_S7_
	leaq	-32(%rbp), %rax
	leaq	-96(%rbp), %rdx
	leaq	-48(%rbp), %rcx
	movq	%rcx, %rsi
	movq	%rax, %rdi
	call	_ZN3glm6detailplIfLNS_9precisionE0EEENS0_5tvec4IT_XT0_EEERKS5_S7_
	leaq	-16(%rbp), %rax
	leaq	-112(%rbp), %rdx
	leaq	-32(%rbp), %rcx
	movq	%rcx, %rsi
	movq	%rax, %rdi
	call	_ZN3glm6detailplIfLNS_9precisionE0EEENS0_5tvec4IT_XT0_EEERKS5_S7_
	movq	-248(%rbp), %rax
	movl	$3, %esi
	movq	%rax, %rdi
	call	_ZN3glm6detail7tmat4x4IfLNS_9precisionE0EEixEi
	leaq	-16(%rbp), %rdx
	movq	%rdx, %rsi
	movq	%rax, %rdi
	call	_ZN3glm6detail5tvec4IfLNS_9precisionE0EEaSERKS3_
	.loc 26 801 0
	nop
.LBE62:
	.loc 26 802 0
	movq	-248(%rbp), %rax
	leave
	.cfi_def_cfa 7, 8
	ret
	.cfi_endproc
.LFE3737:
	.size	_ZN3glm6detailmlIfLNS_9precisionE0EEENS0_7tmat4x4IT_XT0_EEERKS5_S7_, .-_ZN3glm6detailmlIfLNS_9precisionE0EEENS0_7tmat4x4IT_XT0_EEERKS5_S7_
	.section	.text._ZN3glm6detail5tvec4IfLNS_9precisionE0EEaSERKS3_,"axG",@progbits,_ZN3glm6detail5tvec4IfLNS_9precisionE0EEaSERKS3_,comdat
	.align 2
	.weak	_ZN3glm6detail5tvec4IfLNS_9precisionE0EEaSERKS3_
	.type	_ZN3glm6detail5tvec4IfLNS_9precisionE0EEaSERKS3_, @function
_ZN3glm6detail5tvec4IfLNS_9precisionE0EEaSERKS3_:
.LFB3738:
	.loc 22 243 0
	.cfi_startproc
	pushq	%rbp
	.cfi_def_cfa_offset 16
	.cfi_offset 6, -16
	movq	%rsp, %rbp
	.cfi_def_cfa_register 6
	movq	%rdi, -8(%rbp)
	movq	%rsi, -16(%rbp)
	.loc 22 245 0
	movq	-16(%rbp), %rax
	movl	(%rax), %eax
	movq	-8(%rbp), %rdx
	movl	%eax, (%rdx)
	.loc 22 246 0
	movq	-16(%rbp), %rax
	movl	4(%rax), %eax
	movq	-8(%rbp), %rdx
	movl	%eax, 4(%rdx)
	.loc 22 247 0
	movq	-16(%rbp), %rax
	movl	8(%rax), %eax
	movq	-8(%rbp), %rdx
	movl	%eax, 8(%rdx)
	.loc 22 248 0
	movq	-16(%rbp), %rax
	movl	12(%rax), %eax
	movq	-8(%rbp), %rdx
	movl	%eax, 12(%rdx)
	.loc 22 249 0
	movq	-8(%rbp), %rax
	.loc 22 250 0
	popq	%rbp
	.cfi_def_cfa 7, 8
	ret
	.cfi_endproc
.LFE3738:
	.size	_ZN3glm6detail5tvec4IfLNS_9precisionE0EEaSERKS3_, .-_ZN3glm6detail5tvec4IfLNS_9precisionE0EEaSERKS3_
	.section	.text._ZN3glm6detail5tvec3IfLNS_9precisionE0EEC2ERKfS5_S5_,"axG",@progbits,_ZN3glm6detail5tvec3IfLNS_9precisionE0EEC5ERKfS5_S5_,comdat
	.align 2
	.weak	_ZN3glm6detail5tvec3IfLNS_9precisionE0EEC2ERKfS5_S5_
	.type	_ZN3glm6detail5tvec3IfLNS_9precisionE0EEC2ERKfS5_S5_, @function
_ZN3glm6detail5tvec3IfLNS_9precisionE0EEC2ERKfS5_S5_:
.LFB3740:
	.loc 24 107 0
	.cfi_startproc
	pushq	%rbp
	.cfi_def_cfa_offset 16
	.cfi_offset 6, -16
	movq	%rsp, %rbp
	.cfi_def_cfa_register 6
	movq	%rdi, -8(%rbp)
	movq	%rsi, -16(%rbp)
	movq	%rdx, -24(%rbp)
	movq	%rcx, -32(%rbp)
.LBB63:
	.loc 24 115 0
	movq	-16(%rbp), %rax
	movl	(%rax), %eax
	movq	-8(%rbp), %rdx
	movl	%eax, (%rdx)
	movq	-24(%rbp), %rax
	movl	(%rax), %eax
	movq	-8(%rbp), %rdx
	movl	%eax, 4(%rdx)
	movq	-32(%rbp), %rax
	movl	(%rax), %eax
	movq	-8(%rbp), %rdx
	movl	%eax, 8(%rdx)
.LBE63:
	.loc 24 116 0
	popq	%rbp
	.cfi_def_cfa 7, 8
	ret
	.cfi_endproc
.LFE3740:
	.size	_ZN3glm6detail5tvec3IfLNS_9precisionE0EEC2ERKfS5_S5_, .-_ZN3glm6detail5tvec3IfLNS_9precisionE0EEC2ERKfS5_S5_
	.weak	_ZN3glm6detail5tvec3IfLNS_9precisionE0EEC1ERKfS5_S5_
	.set	_ZN3glm6detail5tvec3IfLNS_9precisionE0EEC1ERKfS5_S5_,_ZN3glm6detail5tvec3IfLNS_9precisionE0EEC2ERKfS5_S5_
	.section	.text._ZN3glm9translateIfLNS_9precisionE0EEENS_6detail7tmat4x4IT_XT0_EEERKS5_RKNS2_5tvec3IS4_XT0_EEE,"axG",@progbits,_ZN3glm9translateIfLNS_9precisionE0EEENS_6detail7tmat4x4IT_XT0_EEERKS5_RKNS2_5tvec3IS4_XT0_EEE,comdat
	.weak	_ZN3glm9translateIfLNS_9precisionE0EEENS_6detail7tmat4x4IT_XT0_EEERKS5_RKNS2_5tvec3IS4_XT0_EEE
	.type	_ZN3glm9translateIfLNS_9precisionE0EEENS_6detail7tmat4x4IT_XT0_EEERKS5_RKNS2_5tvec3IS4_XT0_EEE, @function
_ZN3glm9translateIfLNS_9precisionE0EEENS_6detail7tmat4x4IT_XT0_EEERKS5_RKNS2_5tvec3IS4_XT0_EEE:
.LFB3742:
	.loc 25 36 0
	.cfi_startproc
	pushq	%rbp
	.cfi_def_cfa_offset 16
	.cfi_offset 6, -16
	movq	%rsp, %rbp
	.cfi_def_cfa_register 6
	pushq	%r12
	pushq	%rbx
	addq	$-128, %rsp
	.cfi_offset 12, -24
	.cfi_offset 3, -32
	movq	%rdi, -120(%rbp)
	movq	%rsi, -128(%rbp)
	movq	%rdx, -136(%rbp)
.LBB64:
	.loc 25 42 0
	movq	-128(%rbp), %rdx
	movq	-120(%rbp), %rax
	movq	%rdx, %rsi
	movq	%rax, %rdi
	call	_ZN3glm6detail7tmat4x4IfLNS_9precisionE0EEC1ERKS3_
	.loc 25 43 0
	movq	-128(%rbp), %rax
	movl	$3, %esi
	movq	%rax, %rdi
	call	_ZNK3glm6detail7tmat4x4IfLNS_9precisionE0EEixEi
	movq	%rax, %rbx
	movq	-136(%rbp), %rax
	movl	$2, %esi
	movq	%rax, %rdi
	call	_ZNK3glm6detail5tvec3IfLNS_9precisionE0EEixEi
	movq	%rax, %r12
	movq	-128(%rbp), %rax
	movl	$2, %esi
	movq	%rax, %rdi
	call	_ZNK3glm6detail7tmat4x4IfLNS_9precisionE0EEixEi
	movq	%rax, %rcx
	leaq	-112(%rbp), %rax
	movq	%r12, %rdx
	movq	%rcx, %rsi
	movq	%rax, %rdi
	call	_ZN3glm6detailmlIfLNS_9precisionE0EEENS0_5tvec4IT_XT0_EEERKS5_RKS4_
	movq	-136(%rbp), %rax
	movl	$1, %esi
	movq	%rax, %rdi
	call	_ZNK3glm6detail5tvec3IfLNS_9precisionE0EEixEi
	movq	%rax, %r12
	movq	-128(%rbp), %rax
	movl	$1, %esi
	movq	%rax, %rdi
	call	_ZNK3glm6detail7tmat4x4IfLNS_9precisionE0EEixEi
	movq	%rax, %rcx
	leaq	-96(%rbp), %rax
	movq	%r12, %rdx
	movq	%rcx, %rsi
	movq	%rax, %rdi
	call	_ZN3glm6detailmlIfLNS_9precisionE0EEENS0_5tvec4IT_XT0_EEERKS5_RKS4_
	movq	-136(%rbp), %rax
	movl	$0, %esi
	movq	%rax, %rdi
	call	_ZNK3glm6detail5tvec3IfLNS_9precisionE0EEixEi
	movq	%rax, %r12
	movq	-128(%rbp), %rax
	movl	$0, %esi
	movq	%rax, %rdi
	call	_ZNK3glm6detail7tmat4x4IfLNS_9precisionE0EEixEi
	movq	%rax, %rcx
	leaq	-80(%rbp), %rax
	movq	%r12, %rdx
	movq	%rcx, %rsi
	movq	%rax, %rdi
	call	_ZN3glm6detailmlIfLNS_9precisionE0EEENS0_5tvec4IT_XT0_EEERKS5_RKS4_
	leaq	-64(%rbp), %rax
	leaq	-96(%rbp), %rdx
	leaq	-80(%rbp), %rcx
	movq	%rcx, %rsi
	movq	%rax, %rdi
	call	_ZN3glm6detailplIfLNS_9precisionE0EEENS0_5tvec4IT_XT0_EEERKS5_S7_
	leaq	-48(%rbp), %rax
	leaq	-112(%rbp), %rdx
	leaq	-64(%rbp), %rcx
	movq	%rcx, %rsi
	movq	%rax, %rdi
	call	_ZN3glm6detailplIfLNS_9precisionE0EEENS0_5tvec4IT_XT0_EEERKS5_S7_
	leaq	-32(%rbp), %rax
	leaq	-48(%rbp), %rcx
	movq	%rbx, %rdx
	movq	%rcx, %rsi
	movq	%rax, %rdi
	call	_ZN3glm6detailplIfLNS_9precisionE0EEENS0_5tvec4IT_XT0_EEERKS5_S7_
	movq	-120(%rbp), %rax
	movl	$3, %esi
	movq	%rax, %rdi
	call	_ZN3glm6detail7tmat4x4IfLNS_9precisionE0EEixEi
	leaq	-32(%rbp), %rdx
	movq	%rdx, %rsi
	movq	%rax, %rdi
	call	_ZN3glm6detail5tvec4IfLNS_9precisionE0EEaSERKS3_
	.loc 25 44 0
	nop
.LBE64:
	.loc 25 45 0
	movq	-120(%rbp), %rax
	subq	$-128, %rsp
	popq	%rbx
	popq	%r12
	popq	%rbp
	.cfi_def_cfa 7, 8
	ret
	.cfi_endproc
.LFE3742:
	.size	_ZN3glm9translateIfLNS_9precisionE0EEENS_6detail7tmat4x4IT_XT0_EEERKS5_RKNS2_5tvec3IS4_XT0_EEE, .-_ZN3glm9translateIfLNS_9precisionE0EEENS_6detail7tmat4x4IT_XT0_EEERKS5_RKNS2_5tvec3IS4_XT0_EEE
	.section	.text._ZN3glm5scaleIfLNS_9precisionE0EEENS_6detail7tmat4x4IT_XT0_EEERKNS2_5tvec3IS4_XT0_EEE,"axG",@progbits,_ZN3glm5scaleIfLNS_9precisionE0EEENS_6detail7tmat4x4IT_XT0_EEERKNS2_5tvec3IS4_XT0_EEE,comdat
	.weak	_ZN3glm5scaleIfLNS_9precisionE0EEENS_6detail7tmat4x4IT_XT0_EEERKNS2_5tvec3IS4_XT0_EEE
	.type	_ZN3glm5scaleIfLNS_9precisionE0EEENS_6detail7tmat4x4IT_XT0_EEERKNS2_5tvec3IS4_XT0_EEE, @function
_ZN3glm5scaleIfLNS_9precisionE0EEENS_6detail7tmat4x4IT_XT0_EEERKNS2_5tvec3IS4_XT0_EEE:
.LFB3743:
	.file 27 "/usr/include/glm/gtx/transform.inl"
	.loc 27 30 0
	.cfi_startproc
	pushq	%rbp
	.cfi_def_cfa_offset 16
	.cfi_offset 6, -16
	movq	%rsp, %rbp
	.cfi_def_cfa_register 6
	subq	$96, %rsp
	movq	%rdi, -88(%rbp)
	movq	%rsi, -96(%rbp)
	.loc 27 34 0
	movl	.LC1(%rip), %eax
	movl	%eax, -68(%rbp)
	leaq	-68(%rbp), %rdx
	leaq	-64(%rbp), %rax
	movq	%rdx, %rsi
	movq	%rax, %rdi
	call	_ZN3glm6detail7tmat4x4IfLNS_9precisionE0EEC1ERKf
	movq	-88(%rbp), %rax
	movq	-96(%rbp), %rdx
	leaq	-64(%rbp), %rcx
	movq	%rcx, %rsi
	movq	%rax, %rdi
	call	_ZN3glm5scaleIfLNS_9precisionE0EEENS_6detail7tmat4x4IT_XT0_EEERKS5_RKNS2_5tvec3IS4_XT0_EEE
	.loc 27 35 0
	movq	-88(%rbp), %rax
	leave
	.cfi_def_cfa 7, 8
	ret
	.cfi_endproc
.LFE3743:
	.size	_ZN3glm5scaleIfLNS_9precisionE0EEENS_6detail7tmat4x4IT_XT0_EEERKNS2_5tvec3IS4_XT0_EEE, .-_ZN3glm5scaleIfLNS_9precisionE0EEENS_6detail7tmat4x4IT_XT0_EEERKNS2_5tvec3IS4_XT0_EEE
	.section	.text._ZN3glm6rotateIfLNS_9precisionE0EEENS_6detail7tmat4x4IT_XT0_EEES4_RKNS2_5tvec3IS4_XT0_EEE,"axG",@progbits,_ZN3glm6rotateIfLNS_9precisionE0EEENS_6detail7tmat4x4IT_XT0_EEES4_RKNS2_5tvec3IS4_XT0_EEE,comdat
	.weak	_ZN3glm6rotateIfLNS_9precisionE0EEENS_6detail7tmat4x4IT_XT0_EEES4_RKNS2_5tvec3IS4_XT0_EEE
	.type	_ZN3glm6rotateIfLNS_9precisionE0EEENS_6detail7tmat4x4IT_XT0_EEES4_RKNS2_5tvec3IS4_XT0_EEE, @function
_ZN3glm6rotateIfLNS_9precisionE0EEENS_6detail7tmat4x4IT_XT0_EEES4_RKNS2_5tvec3IS4_XT0_EEE:
.LFB3744:
	.loc 27 21 0
	.cfi_startproc
	pushq	%rbp
	.cfi_def_cfa_offset 16
	.cfi_offset 6, -16
	movq	%rsp, %rbp
	.cfi_def_cfa_register 6
	subq	$112, %rsp
	movq	%rdi, -88(%rbp)
	movss	%xmm0, -92(%rbp)
	movq	%rsi, -104(%rbp)
	.loc 27 26 0
	movl	.LC1(%rip), %eax
	movl	%eax, -68(%rbp)
	leaq	-68(%rbp), %rdx
	leaq	-64(%rbp), %rax
	movq	%rdx, %rsi
	movq	%rax, %rdi
	call	_ZN3glm6detail7tmat4x4IfLNS_9precisionE0EEC1ERKf
	movq	-88(%rbp), %rax
	movq	-104(%rbp), %rcx
	leaq	-92(%rbp), %rdx
	leaq	-64(%rbp), %rsi
	movq	%rax, %rdi
	call	_ZN3glm6rotateIfLNS_9precisionE0EEENS_6detail7tmat4x4IT_XT0_EEERKS5_RKS4_RKNS2_5tvec3IS4_XT0_EEE
	.loc 27 27 0
	movq	-88(%rbp), %rax
	leave
	.cfi_def_cfa 7, 8
	ret
	.cfi_endproc
.LFE3744:
	.size	_ZN3glm6rotateIfLNS_9precisionE0EEENS_6detail7tmat4x4IT_XT0_EEES4_RKNS2_5tvec3IS4_XT0_EEE, .-_ZN3glm6rotateIfLNS_9precisionE0EEENS_6detail7tmat4x4IT_XT0_EEES4_RKNS2_5tvec3IS4_XT0_EEE
	.section	.rodata
	.align 8
.LC76:
	.string	"/usr/include/glm/detail/type_mat4x4.inl"
.LC77:
	.string	"i < this->length()"
	.section	.text._ZN3glm6detail7tmat4x4IfLNS_9precisionE0EEixEi,"axG",@progbits,_ZN3glm6detail7tmat4x4IfLNS_9precisionE0EEixEi,comdat
	.align 2
	.weak	_ZN3glm6detail7tmat4x4IfLNS_9precisionE0EEixEi
	.type	_ZN3glm6detail7tmat4x4IfLNS_9precisionE0EEixEi, @function
_ZN3glm6detail7tmat4x4IfLNS_9precisionE0EEixEi:
.LFB3745:
	.loc 26 43 0
	.cfi_startproc
	pushq	%rbp
	.cfi_def_cfa_offset 16
	.cfi_offset 6, -16
	movq	%rsp, %rbp
	.cfi_def_cfa_register 6
	subq	$16, %rsp
	movq	%rdi, -8(%rbp)
	movl	%esi, -12(%rbp)
.LBB65:
	.loc 26 48 0
	movq	-8(%rbp), %rax
	movq	%rax, %rdi
	call	_ZNK3glm6detail7tmat4x4IfLNS_9precisionE0EE6lengthEv
	cmpl	-12(%rbp), %eax
	jg	.L364
	.loc 26 48 0 is_stmt 0 discriminator 1
	movl	$_ZZN3glm6detail7tmat4x4IfLNS_9precisionE0EEixEiE19__PRETTY_FUNCTION__, %ecx
	movl	$48, %edx
	movl	$.LC76, %esi
	movl	$.LC77, %edi
	call	__assert_fail
.L364:
	.loc 26 49 0 is_stmt 1
	movl	-12(%rbp), %eax
	cltq
	salq	$4, %rax
	movq	%rax, %rdx
	movq	-8(%rbp), %rax
	addq	%rdx, %rax
.LBE65:
	.loc 26 50 0
	leave
	.cfi_def_cfa 7, 8
	ret
	.cfi_endproc
.LFE3745:
	.size	_ZN3glm6detail7tmat4x4IfLNS_9precisionE0EEixEi, .-_ZN3glm6detail7tmat4x4IfLNS_9precisionE0EEixEi
	.section	.rodata
	.align 8
.LC78:
	.string	"/usr/include/glm/detail/type_vec4.inl"
.LC79:
	.string	"i >= 0 && i < this->length()"
	.section	.text._ZN3glm6detail5tvec4IfLNS_9precisionE0EEixEi,"axG",@progbits,_ZN3glm6detail5tvec4IfLNS_9precisionE0EEixEi,comdat
	.align 2
	.weak	_ZN3glm6detail5tvec4IfLNS_9precisionE0EEixEi
	.type	_ZN3glm6detail5tvec4IfLNS_9precisionE0EEixEi, @function
_ZN3glm6detail5tvec4IfLNS_9precisionE0EEixEi:
.LFB3746:
	.loc 22 42 0
	.cfi_startproc
	pushq	%rbp
	.cfi_def_cfa_offset 16
	.cfi_offset 6, -16
	movq	%rsp, %rbp
	.cfi_def_cfa_register 6
	subq	$16, %rsp
	movq	%rdi, -8(%rbp)
	movl	%esi, -12(%rbp)
.LBB66:
	.loc 22 44 0
	cmpl	$0, -12(%rbp)
	js	.L367
	.loc 22 44 0 is_stmt 0 discriminator 2
	movq	-8(%rbp), %rax
	movq	%rax, %rdi
	call	_ZNK3glm6detail5tvec4IfLNS_9precisionE0EE6lengthEv
	cmpl	-12(%rbp), %eax
	jg	.L368
.L367:
	.loc 22 44 0 discriminator 1
	movl	$_ZZN3glm6detail5tvec4IfLNS_9precisionE0EEixEiE19__PRETTY_FUNCTION__, %ecx
	movl	$44, %edx
	movl	$.LC78, %esi
	movl	$.LC79, %edi
	call	__assert_fail
.L368:
	.loc 22 45 0 is_stmt 1
	movq	-8(%rbp), %rax
	movl	-12(%rbp), %edx
	movslq	%edx, %rdx
	salq	$2, %rdx
	addq	%rdx, %rax
.LBE66:
	.loc 22 46 0
	leave
	.cfi_def_cfa 7, 8
	ret
	.cfi_endproc
.LFE3746:
	.size	_ZN3glm6detail5tvec4IfLNS_9precisionE0EEixEi, .-_ZN3glm6detail5tvec4IfLNS_9precisionE0EEixEi
	.section	.text._ZN3glm17intersectRayPlaneINS_6detail5tvec3IfLNS_9precisionE0EEEEEbRKT_S7_S7_S7_RNS5_10value_typeE,"axG",@progbits,_ZN3glm17intersectRayPlaneINS_6detail5tvec3IfLNS_9precisionE0EEEEEbRKT_S7_S7_S7_RNS5_10value_typeE,comdat
	.weak	_ZN3glm17intersectRayPlaneINS_6detail5tvec3IfLNS_9precisionE0EEEEEbRKT_S7_S7_S7_RNS5_10value_typeE
	.type	_ZN3glm17intersectRayPlaneINS_6detail5tvec3IfLNS_9precisionE0EEEEEbRKT_S7_S7_S7_RNS5_10value_typeE, @function
_ZN3glm17intersectRayPlaneINS_6detail5tvec3IfLNS_9precisionE0EEEEEbRKT_S7_S7_S7_RNS5_10value_typeE:
.LFB3747:
	.file 28 "/usr/include/glm/gtx/intersect.inl"
	.loc 28 17 0
	.cfi_startproc
	pushq	%rbp
	.cfi_def_cfa_offset 16
	.cfi_offset 6, -16
	movq	%rsp, %rbp
	.cfi_def_cfa_register 6
	subq	$80, %rsp
	movq	%rdi, -40(%rbp)
	movq	%rsi, -48(%rbp)
	movq	%rdx, -56(%rbp)
	movq	%rcx, -64(%rbp)
	movq	%r8, -72(%rbp)
.LBB67:
	.loc 28 24 0
	movq	-64(%rbp), %rdx
	movq	-48(%rbp), %rax
	movq	%rdx, %rsi
	movq	%rax, %rdi
	call	_ZN3glm3dotIfLNS_9precisionE0ENS_6detail5tvec3EEET_RKT1_IS4_XT0_EES8_
	movss	%xmm0, -76(%rbp)
	movl	-76(%rbp), %eax
	movl	%eax, -24(%rbp)
	.loc 28 25 0
	call	_ZNSt14numeric_limitsIfE7epsilonEv
	movss	%xmm0, -76(%rbp)
	movl	-76(%rbp), %eax
	movl	%eax, -20(%rbp)
	.loc 28 27 0
	movss	-20(%rbp), %xmm0
	ucomiss	-24(%rbp), %xmm0
	jbe	.L375
	.loc 28 29 0
	leaq	-16(%rbp), %rax
	movq	-40(%rbp), %rdx
	movq	-56(%rbp), %rcx
	movq	%rcx, %rsi
	movq	%rax, %rdi
	call	_ZN3glm6detailmiIfLNS_9precisionE0EEENS0_5tvec3IT_XT0_EEERKS5_S7_
	movq	-64(%rbp), %rdx
	leaq	-16(%rbp), %rax
	movq	%rdx, %rsi
	movq	%rax, %rdi
	call	_ZN3glm3dotIfLNS_9precisionE0ENS_6detail5tvec3EEET_RKT1_IS4_XT0_EES8_
	divss	-24(%rbp), %xmm0
	movq	-72(%rbp), %rax
	movss	%xmm0, (%rax)
	.loc 28 30 0
	movl	$1, %eax
	jmp	.L373
.L375:
	.loc 28 33 0
	movl	$0, %eax
.L373:
.LBE67:
	.loc 28 34 0
	leave
	.cfi_def_cfa 7, 8
	ret
	.cfi_endproc
.LFE3747:
	.size	_ZN3glm17intersectRayPlaneINS_6detail5tvec3IfLNS_9precisionE0EEEEEbRKT_S7_S7_S7_RNS5_10value_typeE, .-_ZN3glm17intersectRayPlaneINS_6detail5tvec3IfLNS_9precisionE0EEEEEbRKT_S7_S7_S7_RNS5_10value_typeE
	.section	.text._ZN3glm6detailngIfLNS_9precisionE0EEENS0_5tvec3IT_XT0_EEERKS5_,"axG",@progbits,_ZN3glm6detailngIfLNS_9precisionE0EEENS0_5tvec3IT_XT0_EEERKS5_,comdat
	.weak	_ZN3glm6detailngIfLNS_9precisionE0EEENS0_5tvec3IT_XT0_EEERKS5_
	.type	_ZN3glm6detailngIfLNS_9precisionE0EEENS0_5tvec3IT_XT0_EEERKS5_, @function
_ZN3glm6detailngIfLNS_9precisionE0EEENS0_5tvec3IT_XT0_EEERKS5_:
.LFB3748:
	.loc 24 632 0
	.cfi_startproc
	pushq	%rbp
	.cfi_def_cfa_offset 16
	.cfi_offset 6, -16
	movq	%rsp, %rbp
	.cfi_def_cfa_register 6
	subq	$32, %rsp
	movq	%rdi, -24(%rbp)
	movq	%rsi, -32(%rbp)
	.loc 24 640 0
	movq	-32(%rbp), %rax
	movss	8(%rax), %xmm1
	movss	.LC75(%rip), %xmm0
	xorps	%xmm1, %xmm0
	movss	%xmm0, -4(%rbp)
	movq	-32(%rbp), %rax
	movss	4(%rax), %xmm1
	movss	.LC75(%rip), %xmm0
	xorps	%xmm1, %xmm0
	movss	%xmm0, -8(%rbp)
	movq	-32(%rbp), %rax
	movss	(%rax), %xmm1
	movss	.LC75(%rip), %xmm0
	xorps	%xmm1, %xmm0
	movss	%xmm0, -12(%rbp)
	leaq	-4(%rbp), %rcx
	leaq	-8(%rbp), %rdx
	leaq	-12(%rbp), %rsi
	movq	-24(%rbp), %rax
	movq	%rax, %rdi
	call	_ZN3glm6detail5tvec3IfLNS_9precisionE0EEC1ERKfS5_S5_
	.loc 24 641 0
	movq	-24(%rbp), %rax
	leave
	.cfi_def_cfa 7, 8
	ret
	.cfi_endproc
.LFE3748:
	.size	_ZN3glm6detailngIfLNS_9precisionE0EEENS0_5tvec3IT_XT0_EEERKS5_, .-_ZN3glm6detailngIfLNS_9precisionE0EEENS0_5tvec3IT_XT0_EEERKS5_
	.section	.text._ZN3glm7radiansIfEET_RKS1_,"axG",@progbits,_ZN3glm7radiansIfEET_RKS1_,comdat
	.weak	_ZN3glm7radiansIfEET_RKS1_
	.type	_ZN3glm7radiansIfEET_RKS1_, @function
_ZN3glm7radiansIfEET_RKS1_:
.LFB3749:
	.file 29 "/usr/include/glm/detail/func_trigonometric.inl"
	.loc 29 37 0
	.cfi_startproc
	pushq	%rbp
	.cfi_def_cfa_offset 16
	.cfi_offset 6, -16
	movq	%rsp, %rbp
	.cfi_def_cfa_register 6
	movq	%rdi, -8(%rbp)
	.loc 29 44 0
	movq	-8(%rbp), %rax
	movss	(%rax), %xmm1
	movss	.LC80(%rip), %xmm0
	mulss	%xmm1, %xmm0
	movss	%xmm0, -12(%rbp)
	movl	-12(%rbp), %eax
	.loc 29 45 0
	movl	%eax, -12(%rbp)
	movss	-12(%rbp), %xmm0
	popq	%rbp
	.cfi_def_cfa 7, 8
	ret
	.cfi_endproc
.LFE3749:
	.size	_ZN3glm7radiansIfEET_RKS1_, .-_ZN3glm7radiansIfEET_RKS1_
	.section	.rodata
	.align 8
.LC81:
	.string	"/usr/include/glm/gtc/matrix_transform.inl"
.LC82:
	.string	"aspect != valType(0)"
.LC83:
	.string	"zFar != zNear"
	.section	.text._ZN3glm11perspectiveIfEENS_6detail7tmat4x4IT_LNS_9precisionE0EEERKS3_S7_S7_S7_,"axG",@progbits,_ZN3glm11perspectiveIfEENS_6detail7tmat4x4IT_LNS_9precisionE0EEERKS3_S7_S7_S7_,comdat
	.weak	_ZN3glm11perspectiveIfEENS_6detail7tmat4x4IT_LNS_9precisionE0EEERKS3_S7_S7_S7_
	.type	_ZN3glm11perspectiveIfEENS_6detail7tmat4x4IT_LNS_9precisionE0EEERKS3_S7_S7_S7_, @function
_ZN3glm11perspectiveIfEENS_6detail7tmat4x4IT_LNS_9precisionE0EEERKS3_S7_S7_S7_:
.LFB3750:
	.loc 25 239 0
	.cfi_startproc
	pushq	%rbp
	.cfi_def_cfa_offset 16
	.cfi_offset 6, -16
	movq	%rsp, %rbp
	.cfi_def_cfa_register 6
	subq	$64, %rsp
	movq	%rdi, -24(%rbp)
	movq	%rsi, -32(%rbp)
	movq	%rdx, -40(%rbp)
	movq	%rcx, -48(%rbp)
	movq	%r8, -56(%rbp)
.LBB68:
	.loc 25 247 0
	movq	-40(%rbp), %rax
	movss	(%rax), %xmm0
	xorps	%xmm1, %xmm1
	ucomiss	%xmm1, %xmm0
	jp	.L381
	xorps	%xmm1, %xmm1
	ucomiss	%xmm1, %xmm0
	jne	.L381
	.loc 25 247 0 is_stmt 0 discriminator 1
	movl	$_ZZN3glm11perspectiveIfEENS_6detail7tmat4x4IT_LNS_9precisionE0EEERKS3_S7_S7_S7_E19__PRETTY_FUNCTION__, %ecx
	movl	$247, %edx
	movl	$.LC81, %esi
	movl	$.LC82, %edi
	call	__assert_fail
.L381:
	.loc 25 248 0 is_stmt 1
	movq	-56(%rbp), %rax
	movss	(%rax), %xmm0
	movq	-48(%rbp), %rax
	movss	(%rax), %xmm1
	ucomiss	%xmm1, %xmm0
	jp	.L383
	ucomiss	%xmm1, %xmm0
	jne	.L383
	.loc 25 248 0 is_stmt 0 discriminator 1
	movl	$_ZZN3glm11perspectiveIfEENS_6detail7tmat4x4IT_LNS_9precisionE0EEERKS3_S7_S7_S7_E19__PRETTY_FUNCTION__, %ecx
	movl	$248, %edx
	movl	$.LC81, %esi
	movl	$.LC83, %edi
	call	__assert_fail
.L383:
	.loc 25 251 0 is_stmt 1
	movq	-32(%rbp), %rax
	movl	(%rax), %eax
	movl	%eax, -8(%rbp)
	.loc 25 257 0
	movss	-8(%rbp), %xmm0
	movss	.LC84(%rip), %xmm1
	divss	%xmm1, %xmm0
	movss	%xmm0, -12(%rbp)
	leaq	-12(%rbp), %rax
	movq	%rax, %rdi
	call	_ZN3glm3tanIfEET_RKS1_
	movss	%xmm0, -60(%rbp)
	movl	-60(%rbp), %eax
	movl	%eax, -4(%rbp)
	.loc 25 259 0
	movl	.LC25(%rip), %eax
	movl	%eax, -12(%rbp)
	leaq	-12(%rbp), %rdx
	movq	-24(%rbp), %rax
	movq	%rdx, %rsi
	movq	%rax, %rdi
	call	_ZN3glm6detail7tmat4x4IfLNS_9precisionE0EEC1ERKf
	.loc 25 260 0
	movq	-24(%rbp), %rax
	movl	$0, %esi
	movq	%rax, %rdi
	call	_ZN3glm6detail7tmat4x4IfLNS_9precisionE0EEixEi
	movl	$0, %esi
	movq	%rax, %rdi
	call	_ZN3glm6detail5tvec4IfLNS_9precisionE0EEixEi
	movq	-40(%rbp), %rdx
	movss	(%rdx), %xmm0
	mulss	-4(%rbp), %xmm0
	movss	.LC1(%rip), %xmm1
	divss	%xmm0, %xmm1
	movaps	%xmm1, %xmm0
	movss	%xmm0, (%rax)
	.loc 25 261 0
	movq	-24(%rbp), %rax
	movl	$1, %esi
	movq	%rax, %rdi
	call	_ZN3glm6detail7tmat4x4IfLNS_9precisionE0EEixEi
	movl	$1, %esi
	movq	%rax, %rdi
	call	_ZN3glm6detail5tvec4IfLNS_9precisionE0EEixEi
	movss	.LC1(%rip), %xmm0
	divss	-4(%rbp), %xmm0
	movss	%xmm0, (%rax)
	.loc 25 262 0
	movq	-24(%rbp), %rax
	movl	$2, %esi
	movq	%rax, %rdi
	call	_ZN3glm6detail7tmat4x4IfLNS_9precisionE0EEixEi
	movl	$2, %esi
	movq	%rax, %rdi
	call	_ZN3glm6detail5tvec4IfLNS_9precisionE0EEixEi
	movq	-56(%rbp), %rdx
	movss	(%rdx), %xmm1
	movq	-48(%rbp), %rdx
	movss	(%rdx), %xmm0
	addss	%xmm1, %xmm0
	movss	.LC75(%rip), %xmm1
	xorps	%xmm1, %xmm0
	movq	-56(%rbp), %rdx
	movss	(%rdx), %xmm1
	movq	-48(%rbp), %rdx
	movss	(%rdx), %xmm2
	subss	%xmm2, %xmm1
	divss	%xmm1, %xmm0
	movss	%xmm0, (%rax)
	.loc 25 263 0
	movq	-24(%rbp), %rax
	movl	$2, %esi
	movq	%rax, %rdi
	call	_ZN3glm6detail7tmat4x4IfLNS_9precisionE0EEixEi
	movl	$3, %esi
	movq	%rax, %rdi
	call	_ZN3glm6detail5tvec4IfLNS_9precisionE0EEixEi
	movq	%rax, %rdx
	movl	.LC85(%rip), %eax
	movl	%eax, (%rdx)
	.loc 25 264 0
	movq	-24(%rbp), %rax
	movl	$3, %esi
	movq	%rax, %rdi
	call	_ZN3glm6detail7tmat4x4IfLNS_9precisionE0EEixEi
	movl	$2, %esi
	movq	%rax, %rdi
	call	_ZN3glm6detail5tvec4IfLNS_9precisionE0EEixEi
	movq	-56(%rbp), %rdx
	movss	(%rdx), %xmm0
	addss	%xmm0, %xmm0
	movq	-48(%rbp), %rdx
	movss	(%rdx), %xmm1
	mulss	%xmm1, %xmm0
	movss	.LC75(%rip), %xmm1
	xorps	%xmm1, %xmm0
	movq	-56(%rbp), %rdx
	movss	(%rdx), %xmm1
	movq	-48(%rbp), %rdx
	movss	(%rdx), %xmm2
	subss	%xmm2, %xmm1
	divss	%xmm1, %xmm0
	movss	%xmm0, (%rax)
	.loc 25 265 0
	nop
.LBE68:
	.loc 25 266 0
	movq	-24(%rbp), %rax
	leave
	.cfi_def_cfa 7, 8
	ret
	.cfi_endproc
.LFE3750:
	.size	_ZN3glm11perspectiveIfEENS_6detail7tmat4x4IT_LNS_9precisionE0EEERKS3_S7_S7_S7_, .-_ZN3glm11perspectiveIfEENS_6detail7tmat4x4IT_LNS_9precisionE0EEERKS3_S7_S7_S7_
	.section	.text._ZN3glm6detail5tvec3IfLNS_9precisionE0EEC2IfdfEERKT_RKT0_RKT1_,"axG",@progbits,_ZN3glm6detail5tvec3IfLNS_9precisionE0EEC5IfdfEERKT_RKT0_RKT1_,comdat
	.align 2
	.weak	_ZN3glm6detail5tvec3IfLNS_9precisionE0EEC2IfdfEERKT_RKT0_RKT1_
	.type	_ZN3glm6detail5tvec3IfLNS_9precisionE0EEC2IfdfEERKT_RKT0_RKT1_, @function
_ZN3glm6detail5tvec3IfLNS_9precisionE0EEC2IfdfEERKT_RKT0_RKT1_:
.LFB3752:
	.loc 24 123 0
	.cfi_startproc
	pushq	%rbp
	.cfi_def_cfa_offset 16
	.cfi_offset 6, -16
	movq	%rsp, %rbp
	.cfi_def_cfa_register 6
	movq	%rdi, -8(%rbp)
	movq	%rsi, -16(%rbp)
	movq	%rdx, -24(%rbp)
	movq	%rcx, -32(%rbp)
.LBB69:
	.loc 24 131 0
	movq	-16(%rbp), %rax
	movl	(%rax), %eax
	movq	-8(%rbp), %rdx
	movl	%eax, (%rdx)
	movq	-24(%rbp), %rax
	movsd	(%rax), %xmm0
	unpcklpd	%xmm0, %xmm0
	cvtpd2ps	%xmm0, %xmm0
	movq	-8(%rbp), %rax
	movss	%xmm0, 4(%rax)
	movq	-32(%rbp), %rax
	movl	(%rax), %eax
	movq	-8(%rbp), %rdx
	movl	%eax, 8(%rdx)
.LBE69:
	.loc 24 132 0
	popq	%rbp
	.cfi_def_cfa 7, 8
	ret
	.cfi_endproc
.LFE3752:
	.size	_ZN3glm6detail5tvec3IfLNS_9precisionE0EEC2IfdfEERKT_RKT0_RKT1_, .-_ZN3glm6detail5tvec3IfLNS_9precisionE0EEC2IfdfEERKT_RKT0_RKT1_
	.weak	_ZN3glm6detail5tvec3IfLNS_9precisionE0EEC1IfdfEERKT_RKT0_RKT1_
	.set	_ZN3glm6detail5tvec3IfLNS_9precisionE0EEC1IfdfEERKT_RKT0_RKT1_,_ZN3glm6detail5tvec3IfLNS_9precisionE0EEC2IfdfEERKT_RKT0_RKT1_
	.section	.text._ZN3glm6detail5tvec4IfLNS_9precisionE0EEC2IfffiEERKT_RKT0_RKT1_RKT2_,"axG",@progbits,_ZN3glm6detail5tvec4IfLNS_9precisionE0EEC5IfffiEERKT_RKT0_RKT1_RKT2_,comdat
	.align 2
	.weak	_ZN3glm6detail5tvec4IfLNS_9precisionE0EEC2IfffiEERKT_RKT0_RKT1_RKT2_
	.type	_ZN3glm6detail5tvec4IfLNS_9precisionE0EEC2IfffiEERKT_RKT0_RKT1_RKT2_, @function
_ZN3glm6detail5tvec4IfLNS_9precisionE0EEC2IfffiEERKT_RKT0_RKT1_RKT2_:
.LFB3755:
	.loc 22 130 0
	.cfi_startproc
	pushq	%rbp
	.cfi_def_cfa_offset 16
	.cfi_offset 6, -16
	movq	%rsp, %rbp
	.cfi_def_cfa_register 6
	movq	%rdi, -8(%rbp)
	movq	%rsi, -16(%rbp)
	movq	%rdx, -24(%rbp)
	movq	%rcx, -32(%rbp)
	movq	%r8, -40(%rbp)
.LBB70:
	.loc 22 140 0
	movq	-16(%rbp), %rax
	movl	(%rax), %eax
	movq	-8(%rbp), %rdx
	movl	%eax, (%rdx)
	movq	-24(%rbp), %rax
	movl	(%rax), %eax
	movq	-8(%rbp), %rdx
	movl	%eax, 4(%rdx)
	movq	-32(%rbp), %rax
	movl	(%rax), %eax
	movq	-8(%rbp), %rdx
	movl	%eax, 8(%rdx)
	movq	-40(%rbp), %rax
	movl	(%rax), %eax
	cvtsi2ss	%eax, %xmm0
	movq	-8(%rbp), %rax
	movss	%xmm0, 12(%rax)
.LBE70:
	.loc 22 141 0
	popq	%rbp
	.cfi_def_cfa 7, 8
	ret
	.cfi_endproc
.LFE3755:
	.size	_ZN3glm6detail5tvec4IfLNS_9precisionE0EEC2IfffiEERKT_RKT0_RKT1_RKT2_, .-_ZN3glm6detail5tvec4IfLNS_9precisionE0EEC2IfffiEERKT_RKT0_RKT1_RKT2_
	.weak	_ZN3glm6detail5tvec4IfLNS_9precisionE0EEC1IfffiEERKT_RKT0_RKT1_RKT2_
	.set	_ZN3glm6detail5tvec4IfLNS_9precisionE0EEC1IfffiEERKT_RKT0_RKT1_RKT2_,_ZN3glm6detail5tvec4IfLNS_9precisionE0EEC2IfffiEERKT_RKT0_RKT1_RKT2_
	.section	.text._ZN3glm6detail5tvec4IfLNS_9precisionE0EEC2ERKfS5_S5_S5_,"axG",@progbits,_ZN3glm6detail5tvec4IfLNS_9precisionE0EEC5ERKfS5_S5_S5_,comdat
	.align 2
	.weak	_ZN3glm6detail5tvec4IfLNS_9precisionE0EEC2ERKfS5_S5_S5_
	.type	_ZN3glm6detail5tvec4IfLNS_9precisionE0EEC2ERKfS5_S5_S5_, @function
_ZN3glm6detail5tvec4IfLNS_9precisionE0EEC2ERKfS5_S5_S5_:
.LFB3796:
	.loc 22 112 0
	.cfi_startproc
	pushq	%rbp
	.cfi_def_cfa_offset 16
	.cfi_offset 6, -16
	movq	%rsp, %rbp
	.cfi_def_cfa_register 6
	movq	%rdi, -8(%rbp)
	movq	%rsi, -16(%rbp)
	movq	%rdx, -24(%rbp)
	movq	%rcx, -32(%rbp)
	movq	%r8, -40(%rbp)
.LBB71:
	.loc 22 122 0
	movq	-16(%rbp), %rax
	movl	(%rax), %eax
	movq	-8(%rbp), %rdx
	movl	%eax, (%rdx)
	movq	-24(%rbp), %rax
	movl	(%rax), %eax
	movq	-8(%rbp), %rdx
	movl	%eax, 4(%rdx)
	movq	-32(%rbp), %rax
	movl	(%rax), %eax
	movq	-8(%rbp), %rdx
	movl	%eax, 8(%rdx)
	movq	-40(%rbp), %rax
	movl	(%rax), %eax
	movq	-8(%rbp), %rdx
	movl	%eax, 12(%rdx)
.LBE71:
	.loc 22 123 0
	popq	%rbp
	.cfi_def_cfa 7, 8
	ret
	.cfi_endproc
.LFE3796:
	.size	_ZN3glm6detail5tvec4IfLNS_9precisionE0EEC2ERKfS5_S5_S5_, .-_ZN3glm6detail5tvec4IfLNS_9precisionE0EEC2ERKfS5_S5_S5_
	.weak	_ZN3glm6detail5tvec4IfLNS_9precisionE0EEC1ERKfS5_S5_S5_
	.set	_ZN3glm6detail5tvec4IfLNS_9precisionE0EEC1ERKfS5_S5_S5_,_ZN3glm6detail5tvec4IfLNS_9precisionE0EEC2ERKfS5_S5_S5_
	.section	.text._ZN3glm6detailmiIfLNS_9precisionE0EEENS0_5tvec3IT_XT0_EEERKS5_S7_,"axG",@progbits,_ZN3glm6detailmiIfLNS_9precisionE0EEENS0_5tvec3IT_XT0_EEERKS5_S7_,comdat
	.weak	_ZN3glm6detailmiIfLNS_9precisionE0EEENS0_5tvec3IT_XT0_EEERKS5_S7_
	.type	_ZN3glm6detailmiIfLNS_9precisionE0EEENS0_5tvec3IT_XT0_EEERKS5_S7_, @function
_ZN3glm6detailmiIfLNS_9precisionE0EEENS0_5tvec3IT_XT0_EEERKS5_S7_:
.LFB3848:
	.loc 24 538 0
	.cfi_startproc
	pushq	%rbp
	.cfi_def_cfa_offset 16
	.cfi_offset 6, -16
	movq	%rsp, %rbp
	.cfi_def_cfa_register 6
	subq	$48, %rsp
	movq	%rdi, -24(%rbp)
	movq	%rsi, -32(%rbp)
	movq	%rdx, -40(%rbp)
	.loc 24 547 0
	movq	-32(%rbp), %rax
	movss	8(%rax), %xmm0
	movq	-40(%rbp), %rax
	movss	8(%rax), %xmm1
	subss	%xmm1, %xmm0
	movss	%xmm0, -4(%rbp)
	movq	-32(%rbp), %rax
	movss	4(%rax), %xmm0
	movq	-40(%rbp), %rax
	movss	4(%rax), %xmm1
	subss	%xmm1, %xmm0
	movss	%xmm0, -8(%rbp)
	movq	-32(%rbp), %rax
	movss	(%rax), %xmm0
	movq	-40(%rbp), %rax
	movss	(%rax), %xmm1
	subss	%xmm1, %xmm0
	movss	%xmm0, -12(%rbp)
	leaq	-4(%rbp), %rcx
	leaq	-8(%rbp), %rdx
	leaq	-12(%rbp), %rsi
	movq	-24(%rbp), %rax
	movq	%rax, %rdi
	call	_ZN3glm6detail5tvec3IfLNS_9precisionE0EEC1ERKfS5_S5_
	.loc 24 548 0
	movq	-24(%rbp), %rax
	leave
	.cfi_def_cfa 7, 8
	ret
	.cfi_endproc
.LFE3848:
	.size	_ZN3glm6detailmiIfLNS_9precisionE0EEENS0_5tvec3IT_XT0_EEERKS5_S7_, .-_ZN3glm6detailmiIfLNS_9precisionE0EEENS0_5tvec3IT_XT0_EEERKS5_S7_
	.section	.text._ZN3glm9normalizeIfLNS_9precisionE0EEENS_6detail5tvec3IT_XT0_EEERKS5_,"axG",@progbits,_ZN3glm9normalizeIfLNS_9precisionE0EEENS_6detail5tvec3IT_XT0_EEERKS5_,comdat
	.weak	_ZN3glm9normalizeIfLNS_9precisionE0EEENS_6detail5tvec3IT_XT0_EEERKS5_
	.type	_ZN3glm9normalizeIfLNS_9precisionE0EEENS_6detail5tvec3IT_XT0_EEERKS5_, @function
_ZN3glm9normalizeIfLNS_9precisionE0EEENS_6detail5tvec3IT_XT0_EEERKS5_:
.LFB3849:
	.file 30 "/usr/include/glm/detail/func_geometric.inl"
	.loc 30 252 0
	.cfi_startproc
	pushq	%rbp
	.cfi_def_cfa_offset 16
	.cfi_offset 6, -16
	movq	%rsp, %rbp
	.cfi_def_cfa_register 6
	subq	$48, %rsp
	movq	%rdi, -24(%rbp)
	movq	%rsi, -32(%rbp)
.LBB72:
	.loc 30 259 0
	movq	-32(%rbp), %rax
	movss	(%rax), %xmm1
	movq	-32(%rbp), %rax
	movss	(%rax), %xmm0
	mulss	%xmm0, %xmm1
	movq	-32(%rbp), %rax
	movss	4(%rax), %xmm2
	movq	-32(%rbp), %rax
	movss	4(%rax), %xmm0
	mulss	%xmm2, %xmm0
	addss	%xmm0, %xmm1
	movq	-32(%rbp), %rax
	movss	8(%rax), %xmm2
	movq	-32(%rbp), %rax
	movss	8(%rax), %xmm0
	mulss	%xmm2, %xmm0
	addss	%xmm1, %xmm0
	movss	%xmm0, -8(%rbp)
	.loc 30 260 0
	leaq	-8(%rbp), %rax
	movq	%rax, %rdi
	call	_ZN3glm11inversesqrtERKf
	movss	%xmm0, -36(%rbp)
	movl	-36(%rbp), %eax
	movl	%eax, -4(%rbp)
	movq	-24(%rbp), %rax
	leaq	-4(%rbp), %rdx
	movq	-32(%rbp), %rcx
	movq	%rcx, %rsi
	movq	%rax, %rdi
	call	_ZN3glm6detailmlIfLNS_9precisionE0EEENS0_5tvec3IT_XT0_EEERKS5_RKS4_
.LBE72:
	.loc 30 261 0
	movq	-24(%rbp), %rax
	leave
	.cfi_def_cfa 7, 8
	ret
	.cfi_endproc
.LFE3849:
	.size	_ZN3glm9normalizeIfLNS_9precisionE0EEENS_6detail5tvec3IT_XT0_EEERKS5_, .-_ZN3glm9normalizeIfLNS_9precisionE0EEENS_6detail5tvec3IT_XT0_EEERKS5_
	.section	.text._ZN3glm5crossIfLNS_9precisionE0EEENS_6detail5tvec3IT_XT0_EEERKS5_S7_,"axG",@progbits,_ZN3glm5crossIfLNS_9precisionE0EEENS_6detail5tvec3IT_XT0_EEERKS5_S7_,comdat
	.weak	_ZN3glm5crossIfLNS_9precisionE0EEENS_6detail5tvec3IT_XT0_EEERKS5_S7_
	.type	_ZN3glm5crossIfLNS_9precisionE0EEENS_6detail5tvec3IT_XT0_EEERKS5_S7_, @function
_ZN3glm5crossIfLNS_9precisionE0EEENS_6detail5tvec3IT_XT0_EEERKS5_S7_:
.LFB3850:
	.loc 30 212 0
	.cfi_startproc
	pushq	%rbp
	.cfi_def_cfa_offset 16
	.cfi_offset 6, -16
	movq	%rsp, %rbp
	.cfi_def_cfa_register 6
	subq	$48, %rsp
	movq	%rdi, -24(%rbp)
	movq	%rsi, -32(%rbp)
	movq	%rdx, -40(%rbp)
	.loc 30 223 0
	movq	-32(%rbp), %rax
	movss	(%rax), %xmm1
	movq	-40(%rbp), %rax
	movss	4(%rax), %xmm0
	mulss	%xmm1, %xmm0
	movq	-40(%rbp), %rax
	movss	(%rax), %xmm2
	movq	-32(%rbp), %rax
	movss	4(%rax), %xmm1
	mulss	%xmm2, %xmm1
	subss	%xmm1, %xmm0
	movss	%xmm0, -4(%rbp)
	movq	-32(%rbp), %rax
	movss	8(%rax), %xmm1
	movq	-40(%rbp), %rax
	movss	(%rax), %xmm0
	mulss	%xmm1, %xmm0
	movq	-40(%rbp), %rax
	movss	8(%rax), %xmm2
	movq	-32(%rbp), %rax
	movss	(%rax), %xmm1
	mulss	%xmm2, %xmm1
	subss	%xmm1, %xmm0
	movss	%xmm0, -8(%rbp)
	movq	-32(%rbp), %rax
	movss	4(%rax), %xmm1
	movq	-40(%rbp), %rax
	movss	8(%rax), %xmm0
	mulss	%xmm1, %xmm0
	movq	-40(%rbp), %rax
	movss	4(%rax), %xmm2
	movq	-32(%rbp), %rax
	movss	8(%rax), %xmm1
	mulss	%xmm2, %xmm1
	subss	%xmm1, %xmm0
	movss	%xmm0, -12(%rbp)
	leaq	-4(%rbp), %rcx
	leaq	-8(%rbp), %rdx
	leaq	-12(%rbp), %rsi
	movq	-24(%rbp), %rax
	movq	%rax, %rdi
	call	_ZN3glm6detail5tvec3IfLNS_9precisionE0EEC1ERKfS5_S5_
	.loc 30 224 0
	movq	-24(%rbp), %rax
	leave
	.cfi_def_cfa 7, 8
	ret
	.cfi_endproc
.LFE3850:
	.size	_ZN3glm5crossIfLNS_9precisionE0EEENS_6detail5tvec3IT_XT0_EEERKS5_S7_, .-_ZN3glm5crossIfLNS_9precisionE0EEENS_6detail5tvec3IT_XT0_EEERKS5_S7_
	.section	.text._ZN3glm6detail7tmat4x4IfLNS_9precisionE0EEC2ERKf,"axG",@progbits,_ZN3glm6detail7tmat4x4IfLNS_9precisionE0EEC5ERKf,comdat
	.align 2
	.weak	_ZN3glm6detail7tmat4x4IfLNS_9precisionE0EEC2ERKf
	.type	_ZN3glm6detail7tmat4x4IfLNS_9precisionE0EEC2ERKf, @function
_ZN3glm6detail7tmat4x4IfLNS_9precisionE0EEC2ERKf:
.LFB3852:
	.loc 26 110 0
	.cfi_startproc
	pushq	%rbp
	.cfi_def_cfa_offset 16
	.cfi_offset 6, -16
	movq	%rsp, %rbp
	.cfi_def_cfa_register 6
	pushq	%r12
	pushq	%rbx
	subq	$48, %rsp
	.cfi_offset 12, -24
	.cfi_offset 3, -32
	movq	%rdi, -56(%rbp)
	movq	%rsi, -64(%rbp)
.LBB73:
	.loc 26 113 0
	movq	-56(%rbp), %rax
	movl	$3, %ebx
	movq	%rax, %r12
	jmp	.L398
.L399:
	.loc 26 113 0 is_stmt 0 discriminator 2
	movq	%r12, %rdi
	call	_ZN3glm6detail5tvec4IfLNS_9precisionE0EEC1Ev
	addq	$16, %r12
	subq	$1, %rbx
.L398:
	.loc 26 113 0 discriminator 1
	cmpq	$-1, %rbx
	jne	.L399
.LBB74:
	.loc 26 115 0 is_stmt 1 discriminator 3
	movl	.LC25(%rip), %eax
	movl	%eax, -36(%rbp)
	.loc 26 116 0 discriminator 3
	leaq	-36(%rbp), %rdi
	leaq	-36(%rbp), %rcx
	leaq	-36(%rbp), %rdx
	movq	-64(%rbp), %rsi
	leaq	-32(%rbp), %rax
	movq	%rdi, %r8
	movq	%rax, %rdi
	call	_ZN3glm6detail5tvec4IfLNS_9precisionE0EEC1ERKfS5_S5_S5_
	movq	-56(%rbp), %rax
	leaq	-32(%rbp), %rdx
	movq	%rdx, %rsi
	movq	%rax, %rdi
	call	_ZN3glm6detail5tvec4IfLNS_9precisionE0EEaSERKS3_
	.loc 26 117 0 discriminator 3
	leaq	-36(%rbp), %rdi
	leaq	-36(%rbp), %rcx
	movq	-64(%rbp), %rdx
	leaq	-36(%rbp), %rsi
	leaq	-32(%rbp), %rax
	movq	%rdi, %r8
	movq	%rax, %rdi
	call	_ZN3glm6detail5tvec4IfLNS_9precisionE0EEC1ERKfS5_S5_S5_
	movq	-56(%rbp), %rax
	leaq	16(%rax), %rdx
	leaq	-32(%rbp), %rax
	movq	%rax, %rsi
	movq	%rdx, %rdi
	call	_ZN3glm6detail5tvec4IfLNS_9precisionE0EEaSERKS3_
	.loc 26 118 0 discriminator 3
	leaq	-36(%rbp), %rdi
	movq	-64(%rbp), %rcx
	leaq	-36(%rbp), %rdx
	leaq	-36(%rbp), %rsi
	leaq	-32(%rbp), %rax
	movq	%rdi, %r8
	movq	%rax, %rdi
	call	_ZN3glm6detail5tvec4IfLNS_9precisionE0EEC1ERKfS5_S5_S5_
	movq	-56(%rbp), %rax
	leaq	32(%rax), %rdx
	leaq	-32(%rbp), %rax
	movq	%rax, %rsi
	movq	%rdx, %rdi
	call	_ZN3glm6detail5tvec4IfLNS_9precisionE0EEaSERKS3_
	.loc 26 119 0 discriminator 3
	movq	-64(%rbp), %rdi
	leaq	-36(%rbp), %rcx
	leaq	-36(%rbp), %rdx
	leaq	-36(%rbp), %rsi
	leaq	-32(%rbp), %rax
	movq	%rdi, %r8
	movq	%rax, %rdi
	call	_ZN3glm6detail5tvec4IfLNS_9precisionE0EEC1ERKfS5_S5_S5_
	movq	-56(%rbp), %rax
	leaq	48(%rax), %rdx
	leaq	-32(%rbp), %rax
	movq	%rax, %rsi
	movq	%rdx, %rdi
	call	_ZN3glm6detail5tvec4IfLNS_9precisionE0EEaSERKS3_
.LBE74:
.LBE73:
	.loc 26 120 0 discriminator 3
	addq	$48, %rsp
	popq	%rbx
	popq	%r12
	popq	%rbp
	.cfi_def_cfa 7, 8
	ret
	.cfi_endproc
.LFE3852:
	.size	_ZN3glm6detail7tmat4x4IfLNS_9precisionE0EEC2ERKf, .-_ZN3glm6detail7tmat4x4IfLNS_9precisionE0EEC2ERKf
	.weak	_ZN3glm6detail7tmat4x4IfLNS_9precisionE0EEC1ERKf
	.set	_ZN3glm6detail7tmat4x4IfLNS_9precisionE0EEC1ERKf,_ZN3glm6detail7tmat4x4IfLNS_9precisionE0EEC2ERKf
	.section	.text._ZN3glm3dotIfLNS_9precisionE0ENS_6detail5tvec3EEET_RKT1_IS4_XT0_EES8_,"axG",@progbits,_ZN3glm3dotIfLNS_9precisionE0ENS_6detail5tvec3EEET_RKT1_IS4_XT0_EES8_,comdat
	.weak	_ZN3glm3dotIfLNS_9precisionE0ENS_6detail5tvec3EEET_RKT1_IS4_XT0_EES8_
	.type	_ZN3glm3dotIfLNS_9precisionE0ENS_6detail5tvec3EEET_RKT1_IS4_XT0_EES8_, @function
_ZN3glm3dotIfLNS_9precisionE0ENS_6detail5tvec3EEET_RKT1_IS4_XT0_EES8_:
.LFB3854:
	.loc 30 183 0
	.cfi_startproc
	pushq	%rbp
	.cfi_def_cfa_offset 16
	.cfi_offset 6, -16
	movq	%rsp, %rbp
	.cfi_def_cfa_register 6
	subq	$32, %rsp
	movq	%rdi, -8(%rbp)
	movq	%rsi, -16(%rbp)
	.loc 30 190 0
	movq	-16(%rbp), %rdx
	movq	-8(%rbp), %rax
	movq	%rdx, %rsi
	movq	%rax, %rdi
	call	_ZN3glm6detail11compute_dotINS0_5tvec3EfLNS_9precisionE0EE4callERKNS2_IfLS3_0EEES7_
	movss	%xmm0, -20(%rbp)
	movl	-20(%rbp), %eax
	.loc 30 191 0
	movl	%eax, -20(%rbp)
	movss	-20(%rbp), %xmm0
	leave
	.cfi_def_cfa 7, 8
	ret
	.cfi_endproc
.LFE3854:
	.size	_ZN3glm3dotIfLNS_9precisionE0ENS_6detail5tvec3EEET_RKT1_IS4_XT0_EES8_, .-_ZN3glm3dotIfLNS_9precisionE0ENS_6detail5tvec3EEET_RKT1_IS4_XT0_EES8_
	.section	.text._ZNK3glm6detail7tmat4x4IfLNS_9precisionE0EEixEi,"axG",@progbits,_ZNK3glm6detail7tmat4x4IfLNS_9precisionE0EEixEi,comdat
	.align 2
	.weak	_ZNK3glm6detail7tmat4x4IfLNS_9precisionE0EEixEi
	.type	_ZNK3glm6detail7tmat4x4IfLNS_9precisionE0EEixEi, @function
_ZNK3glm6detail7tmat4x4IfLNS_9precisionE0EEixEi:
.LFB3855:
	.loc 26 54 0
	.cfi_startproc
	pushq	%rbp
	.cfi_def_cfa_offset 16
	.cfi_offset 6, -16
	movq	%rsp, %rbp
	.cfi_def_cfa_register 6
	subq	$16, %rsp
	movq	%rdi, -8(%rbp)
	movl	%esi, -12(%rbp)
.LBB75:
	.loc 26 59 0
	movq	-8(%rbp), %rax
	movq	%rax, %rdi
	call	_ZNK3glm6detail7tmat4x4IfLNS_9precisionE0EE6lengthEv
	cmpl	-12(%rbp), %eax
	jg	.L403
	.loc 26 59 0 is_stmt 0 discriminator 1
	movl	$_ZZNK3glm6detail7tmat4x4IfLNS_9precisionE0EEixEiE19__PRETTY_FUNCTION__, %ecx
	movl	$59, %edx
	movl	$.LC76, %esi
	movl	$.LC77, %edi
	call	__assert_fail
.L403:
	.loc 26 60 0 is_stmt 1
	movl	-12(%rbp), %eax
	cltq
	salq	$4, %rax
	movq	%rax, %rdx
	movq	-8(%rbp), %rax
	addq	%rdx, %rax
.LBE75:
	.loc 26 61 0
	leave
	.cfi_def_cfa 7, 8
	ret
	.cfi_endproc
.LFE3855:
	.size	_ZNK3glm6detail7tmat4x4IfLNS_9precisionE0EEixEi, .-_ZNK3glm6detail7tmat4x4IfLNS_9precisionE0EEixEi
	.section	.text._ZN3glm6detail7tmat4x4IfLNS_9precisionE0EEC2ENS3_4ctorE,"axG",@progbits,_ZN3glm6detail7tmat4x4IfLNS_9precisionE0EEC5ENS3_4ctorE,comdat
	.align 2
	.weak	_ZN3glm6detail7tmat4x4IfLNS_9precisionE0EEC2ENS3_4ctorE
	.type	_ZN3glm6detail7tmat4x4IfLNS_9precisionE0EEC2ENS3_4ctorE, @function
_ZN3glm6detail7tmat4x4IfLNS_9precisionE0EEC2ENS3_4ctorE:
.LFB3857:
	.loc 26 103 0
	.cfi_startproc
	pushq	%rbp
	.cfi_def_cfa_offset 16
	.cfi_offset 6, -16
	movq	%rsp, %rbp
	.cfi_def_cfa_register 6
	pushq	%r12
	pushq	%rbx
	subq	$16, %rsp
	.cfi_offset 12, -24
	.cfi_offset 3, -32
	movq	%rdi, -24(%rbp)
	movl	%esi, -28(%rbp)
.LBB76:
	.loc 26 106 0
	movq	-24(%rbp), %rax
	movl	$3, %ebx
	movq	%rax, %r12
	jmp	.L406
.L407:
	.loc 26 106 0 is_stmt 0 discriminator 2
	movq	%r12, %rdi
	call	_ZN3glm6detail5tvec4IfLNS_9precisionE0EEC1Ev
	addq	$16, %r12
	subq	$1, %rbx
.L406:
	.loc 26 106 0 discriminator 1
	cmpq	$-1, %rbx
	jne	.L407
.LBE76:
	.loc 26 107 0 is_stmt 1 discriminator 3
	addq	$16, %rsp
	popq	%rbx
	popq	%r12
	popq	%rbp
	.cfi_def_cfa 7, 8
	ret
	.cfi_endproc
.LFE3857:
	.size	_ZN3glm6detail7tmat4x4IfLNS_9precisionE0EEC2ENS3_4ctorE, .-_ZN3glm6detail7tmat4x4IfLNS_9precisionE0EEC2ENS3_4ctorE
	.weak	_ZN3glm6detail7tmat4x4IfLNS_9precisionE0EEC1ENS3_4ctorE
	.set	_ZN3glm6detail7tmat4x4IfLNS_9precisionE0EEC1ENS3_4ctorE,_ZN3glm6detail7tmat4x4IfLNS_9precisionE0EEC2ENS3_4ctorE
	.section	.text._ZNK3glm6detail5tvec4IfLNS_9precisionE0EEixEi,"axG",@progbits,_ZNK3glm6detail5tvec4IfLNS_9precisionE0EEixEi,comdat
	.align 2
	.weak	_ZNK3glm6detail5tvec4IfLNS_9precisionE0EEixEi
	.type	_ZNK3glm6detail5tvec4IfLNS_9precisionE0EEixEi, @function
_ZNK3glm6detail5tvec4IfLNS_9precisionE0EEixEi:
.LFB3859:
	.loc 22 49 0
	.cfi_startproc
	pushq	%rbp
	.cfi_def_cfa_offset 16
	.cfi_offset 6, -16
	movq	%rsp, %rbp
	.cfi_def_cfa_register 6
	subq	$16, %rsp
	movq	%rdi, -8(%rbp)
	movl	%esi, -12(%rbp)
.LBB77:
	.loc 22 51 0
	cmpl	$0, -12(%rbp)
	js	.L409
	.loc 22 51 0 is_stmt 0 discriminator 2
	movq	-8(%rbp), %rax
	movq	%rax, %rdi
	call	_ZNK3glm6detail5tvec4IfLNS_9precisionE0EE6lengthEv
	cmpl	-12(%rbp), %eax
	jg	.L410
.L409:
	.loc 22 51 0 discriminator 1
	movl	$_ZZNK3glm6detail5tvec4IfLNS_9precisionE0EEixEiE19__PRETTY_FUNCTION__, %ecx
	movl	$51, %edx
	movl	$.LC78, %esi
	movl	$.LC79, %edi
	call	__assert_fail
.L410:
	.loc 22 52 0 is_stmt 1
	movq	-8(%rbp), %rax
	movl	-12(%rbp), %edx
	movslq	%edx, %rdx
	salq	$2, %rdx
	addq	%rdx, %rax
.LBE77:
	.loc 22 53 0
	leave
	.cfi_def_cfa 7, 8
	ret
	.cfi_endproc
.LFE3859:
	.size	_ZNK3glm6detail5tvec4IfLNS_9precisionE0EEixEi, .-_ZNK3glm6detail5tvec4IfLNS_9precisionE0EEixEi
	.section	.text._ZN3glm6detailplIfLNS_9precisionE0EEENS0_5tvec4IT_XT0_EEERKS5_S7_,"axG",@progbits,_ZN3glm6detailplIfLNS_9precisionE0EEENS0_5tvec4IT_XT0_EEERKS5_S7_,comdat
	.weak	_ZN3glm6detailplIfLNS_9precisionE0EEENS0_5tvec4IT_XT0_EEERKS5_S7_
	.type	_ZN3glm6detailplIfLNS_9precisionE0EEENS0_5tvec4IT_XT0_EEERKS5_S7_, @function
_ZN3glm6detailplIfLNS_9precisionE0EEENS0_5tvec4IT_XT0_EEERKS5_S7_:
.LFB3860:
	.loc 22 557 0
	.cfi_startproc
	pushq	%rbp
	.cfi_def_cfa_offset 16
	.cfi_offset 6, -16
	movq	%rsp, %rbp
	.cfi_def_cfa_register 6
	subq	$48, %rsp
	movq	%rdi, -24(%rbp)
	movq	%rsi, -32(%rbp)
	movq	%rdx, -40(%rbp)
	.loc 22 567 0
	movq	-32(%rbp), %rax
	movss	12(%rax), %xmm1
	movq	-40(%rbp), %rax
	movss	12(%rax), %xmm0
	addss	%xmm1, %xmm0
	movss	%xmm0, -4(%rbp)
	movq	-32(%rbp), %rax
	movss	8(%rax), %xmm1
	movq	-40(%rbp), %rax
	movss	8(%rax), %xmm0
	addss	%xmm1, %xmm0
	movss	%xmm0, -8(%rbp)
	movq	-32(%rbp), %rax
	movss	4(%rax), %xmm1
	movq	-40(%rbp), %rax
	movss	4(%rax), %xmm0
	addss	%xmm1, %xmm0
	movss	%xmm0, -12(%rbp)
	movq	-32(%rbp), %rax
	movss	(%rax), %xmm1
	movq	-40(%rbp), %rax
	movss	(%rax), %xmm0
	addss	%xmm1, %xmm0
	movss	%xmm0, -16(%rbp)
	leaq	-4(%rbp), %rdi
	leaq	-8(%rbp), %rcx
	leaq	-12(%rbp), %rdx
	leaq	-16(%rbp), %rsi
	movq	-24(%rbp), %rax
	movq	%rdi, %r8
	movq	%rax, %rdi
	call	_ZN3glm6detail5tvec4IfLNS_9precisionE0EEC1ERKfS5_S5_S5_
	.loc 22 568 0
	movq	-24(%rbp), %rax
	leave
	.cfi_def_cfa 7, 8
	ret
	.cfi_endproc
.LFE3860:
	.size	_ZN3glm6detailplIfLNS_9precisionE0EEENS0_5tvec4IT_XT0_EEERKS5_S7_, .-_ZN3glm6detailplIfLNS_9precisionE0EEENS0_5tvec4IT_XT0_EEERKS5_S7_
	.section	.rodata
	.align 8
.LC86:
	.string	"/usr/include/glm/detail/type_vec3.inl"
	.section	.text._ZNK3glm6detail5tvec3IfLNS_9precisionE0EEixEi,"axG",@progbits,_ZNK3glm6detail5tvec3IfLNS_9precisionE0EEixEi,comdat
	.align 2
	.weak	_ZNK3glm6detail5tvec3IfLNS_9precisionE0EEixEi
	.type	_ZNK3glm6detail5tvec3IfLNS_9precisionE0EEixEi, @function
_ZNK3glm6detail5tvec3IfLNS_9precisionE0EEixEi:
.LFB3861:
	.loc 24 49 0
	.cfi_startproc
	pushq	%rbp
	.cfi_def_cfa_offset 16
	.cfi_offset 6, -16
	movq	%rsp, %rbp
	.cfi_def_cfa_register 6
	subq	$16, %rsp
	movq	%rdi, -8(%rbp)
	movl	%esi, -12(%rbp)
.LBB78:
	.loc 24 51 0
	cmpl	$0, -12(%rbp)
	js	.L415
	.loc 24 51 0 is_stmt 0 discriminator 2
	movq	-8(%rbp), %rax
	movq	%rax, %rdi
	call	_ZNK3glm6detail5tvec3IfLNS_9precisionE0EE6lengthEv
	cmpl	-12(%rbp), %eax
	jg	.L416
.L415:
	.loc 24 51 0 discriminator 1
	movl	$_ZZNK3glm6detail5tvec3IfLNS_9precisionE0EEixEiE19__PRETTY_FUNCTION__, %ecx
	movl	$51, %edx
	movl	$.LC86, %esi
	movl	$.LC79, %edi
	call	__assert_fail
.L416:
	.loc 24 52 0 is_stmt 1
	movq	-8(%rbp), %rax
	movl	-12(%rbp), %edx
	movslq	%edx, %rdx
	salq	$2, %rdx
	addq	%rdx, %rax
.LBE78:
	.loc 24 53 0
	leave
	.cfi_def_cfa 7, 8
	ret
	.cfi_endproc
.LFE3861:
	.size	_ZNK3glm6detail5tvec3IfLNS_9precisionE0EEixEi, .-_ZNK3glm6detail5tvec3IfLNS_9precisionE0EEixEi
	.section	.text._ZN3glm5scaleIfLNS_9precisionE0EEENS_6detail7tmat4x4IT_XT0_EEERKS5_RKNS2_5tvec3IS4_XT0_EEE,"axG",@progbits,_ZN3glm5scaleIfLNS_9precisionE0EEENS_6detail7tmat4x4IT_XT0_EEERKS5_RKNS2_5tvec3IS4_XT0_EEE,comdat
	.weak	_ZN3glm5scaleIfLNS_9precisionE0EEENS_6detail7tmat4x4IT_XT0_EEERKS5_RKNS2_5tvec3IS4_XT0_EEE
	.type	_ZN3glm5scaleIfLNS_9precisionE0EEENS_6detail7tmat4x4IT_XT0_EEERKS5_RKNS2_5tvec3IS4_XT0_EEE, @function
_ZN3glm5scaleIfLNS_9precisionE0EEENS_6detail7tmat4x4IT_XT0_EEERKS5_RKNS2_5tvec3IS4_XT0_EEE:
.LFB3862:
	.loc 25 149 0
	.cfi_startproc
	pushq	%rbp
	.cfi_def_cfa_offset 16
	.cfi_offset 6, -16
	movq	%rsp, %rbp
	.cfi_def_cfa_register 6
	pushq	%rbx
	subq	$56, %rsp
	.cfi_offset 3, -24
	movq	%rdi, -40(%rbp)
	movq	%rsi, -48(%rbp)
	movq	%rdx, -56(%rbp)
.LBB79:
	.loc 25 155 0
	movq	-40(%rbp), %rax
	movl	$0, %esi
	movq	%rax, %rdi
	call	_ZN3glm6detail7tmat4x4IfLNS_9precisionE0EEC1ENS3_4ctorE
	.loc 25 156 0
	movq	-56(%rbp), %rax
	movl	$0, %esi
	movq	%rax, %rdi
	call	_ZNK3glm6detail5tvec3IfLNS_9precisionE0EEixEi
	movq	%rax, %rbx
	movq	-48(%rbp), %rax
	movl	$0, %esi
	movq	%rax, %rdi
	call	_ZNK3glm6detail7tmat4x4IfLNS_9precisionE0EEixEi
	movq	%rax, %rcx
	leaq	-32(%rbp), %rax
	movq	%rbx, %rdx
	movq	%rcx, %rsi
	movq	%rax, %rdi
	call	_ZN3glm6detailmlIfLNS_9precisionE0EEENS0_5tvec4IT_XT0_EEERKS5_RKS4_
	movq	-40(%rbp), %rax
	movl	$0, %esi
	movq	%rax, %rdi
	call	_ZN3glm6detail7tmat4x4IfLNS_9precisionE0EEixEi
	leaq	-32(%rbp), %rdx
	movq	%rdx, %rsi
	movq	%rax, %rdi
	call	_ZN3glm6detail5tvec4IfLNS_9precisionE0EEaSERKS3_
	.loc 25 157 0
	movq	-56(%rbp), %rax
	movl	$1, %esi
	movq	%rax, %rdi
	call	_ZNK3glm6detail5tvec3IfLNS_9precisionE0EEixEi
	movq	%rax, %rbx
	movq	-48(%rbp), %rax
	movl	$1, %esi
	movq	%rax, %rdi
	call	_ZNK3glm6detail7tmat4x4IfLNS_9precisionE0EEixEi
	movq	%rax, %rcx
	leaq	-32(%rbp), %rax
	movq	%rbx, %rdx
	movq	%rcx, %rsi
	movq	%rax, %rdi
	call	_ZN3glm6detailmlIfLNS_9precisionE0EEENS0_5tvec4IT_XT0_EEERKS5_RKS4_
	movq	-40(%rbp), %rax
	movl	$1, %esi
	movq	%rax, %rdi
	call	_ZN3glm6detail7tmat4x4IfLNS_9precisionE0EEixEi
	leaq	-32(%rbp), %rdx
	movq	%rdx, %rsi
	movq	%rax, %rdi
	call	_ZN3glm6detail5tvec4IfLNS_9precisionE0EEaSERKS3_
	.loc 25 158 0
	movq	-56(%rbp), %rax
	movl	$2, %esi
	movq	%rax, %rdi
	call	_ZNK3glm6detail5tvec3IfLNS_9precisionE0EEixEi
	movq	%rax, %rbx
	movq	-48(%rbp), %rax
	movl	$2, %esi
	movq	%rax, %rdi
	call	_ZNK3glm6detail7tmat4x4IfLNS_9precisionE0EEixEi
	movq	%rax, %rcx
	leaq	-32(%rbp), %rax
	movq	%rbx, %rdx
	movq	%rcx, %rsi
	movq	%rax, %rdi
	call	_ZN3glm6detailmlIfLNS_9precisionE0EEENS0_5tvec4IT_XT0_EEERKS5_RKS4_
	movq	-40(%rbp), %rax
	movl	$2, %esi
	movq	%rax, %rdi
	call	_ZN3glm6detail7tmat4x4IfLNS_9precisionE0EEixEi
	leaq	-32(%rbp), %rdx
	movq	%rdx, %rsi
	movq	%rax, %rdi
	call	_ZN3glm6detail5tvec4IfLNS_9precisionE0EEaSERKS3_
	.loc 25 159 0
	movq	-48(%rbp), %rax
	movl	$3, %esi
	movq	%rax, %rdi
	call	_ZNK3glm6detail7tmat4x4IfLNS_9precisionE0EEixEi
	movq	%rax, %rbx
	movq	-40(%rbp), %rax
	movl	$3, %esi
	movq	%rax, %rdi
	call	_ZN3glm6detail7tmat4x4IfLNS_9precisionE0EEixEi
	movq	%rbx, %rsi
	movq	%rax, %rdi
	call	_ZN3glm6detail5tvec4IfLNS_9precisionE0EEaSERKS3_
	.loc 25 160 0
	nop
.LBE79:
	.loc 25 161 0
	movq	-40(%rbp), %rax
	addq	$56, %rsp
	popq	%rbx
	popq	%rbp
	.cfi_def_cfa 7, 8
	ret
	.cfi_endproc
.LFE3862:
	.size	_ZN3glm5scaleIfLNS_9precisionE0EEENS_6detail7tmat4x4IT_XT0_EEERKS5_RKNS2_5tvec3IS4_XT0_EEE, .-_ZN3glm5scaleIfLNS_9precisionE0EEENS_6detail7tmat4x4IT_XT0_EEERKS5_RKNS2_5tvec3IS4_XT0_EEE
	.section	.text._ZN3glm6rotateIfLNS_9precisionE0EEENS_6detail7tmat4x4IT_XT0_EEERKS5_RKS4_RKNS2_5tvec3IS4_XT0_EEE,"axG",@progbits,_ZN3glm6rotateIfLNS_9precisionE0EEENS_6detail7tmat4x4IT_XT0_EEERKS5_RKS4_RKNS2_5tvec3IS4_XT0_EEE,comdat
	.weak	_ZN3glm6rotateIfLNS_9precisionE0EEENS_6detail7tmat4x4IT_XT0_EEERKS5_RKS4_RKNS2_5tvec3IS4_XT0_EEE
	.type	_ZN3glm6rotateIfLNS_9precisionE0EEENS_6detail7tmat4x4IT_XT0_EEERKS5_RKS4_RKNS2_5tvec3IS4_XT0_EEE, @function
_ZN3glm6rotateIfLNS_9precisionE0EEENS_6detail7tmat4x4IT_XT0_EEERKS5_RKS4_RKNS2_5tvec3IS4_XT0_EEE:
.LFB3863:
	.loc 25 69 0
	.cfi_startproc
	pushq	%rbp
	.cfi_def_cfa_offset 16
	.cfi_offset 6, -16
	movq	%rsp, %rbp
	.cfi_def_cfa_register 6
	pushq	%rbx
	subq	$248, %rsp
	.cfi_offset 3, -24
	movq	%rdi, -216(%rbp)
	movq	%rsi, -224(%rbp)
	movq	%rdx, -232(%rbp)
	movq	%rcx, -240(%rbp)
.LBB80:
	.loc 25 77 0
	movq	-232(%rbp), %rax
	movl	(%rax), %eax
	movl	%eax, -204(%rbp)
	.loc 25 82 0
	leaq	-204(%rbp), %rax
	movq	%rax, %rdi
	call	_ZN3glm3cosIfEET_RKS1_
	movss	%xmm0, -244(%rbp)
	movl	-244(%rbp), %eax
	movl	%eax, -200(%rbp)
	.loc 25 83 0
	leaq	-204(%rbp), %rax
	movq	%rax, %rdi
	call	_ZN3glm3sinIfEET_RKS1_
	movss	%xmm0, -244(%rbp)
	movl	-244(%rbp), %eax
	movl	%eax, -196(%rbp)
	.loc 25 85 0
	leaq	-192(%rbp), %rax
	movq	-240(%rbp), %rdx
	movq	%rdx, %rsi
	movq	%rax, %rdi
	call	_ZN3glm9normalizeIfLNS_9precisionE0EEENS_6detail5tvec3IT_XT0_EEERKS5_
	.loc 25 86 0
	movss	.LC1(%rip), %xmm0
	subss	-200(%rbp), %xmm0
	movss	%xmm0, -80(%rbp)
	leaq	-176(%rbp), %rax
	leaq	-192(%rbp), %rdx
	leaq	-80(%rbp), %rcx
	movq	%rcx, %rsi
	movq	%rax, %rdi
	call	_ZN3glm6detailmlIfLNS_9precisionE0EEENS0_5tvec3IT_XT0_EEERKS4_RKS5_
	.loc 25 88 0
	leaq	-80(%rbp), %rax
	movl	$0, %esi
	movq	%rax, %rdi
	call	_ZN3glm6detail7tmat4x4IfLNS_9precisionE0EEC1ENS3_4ctorE
	.loc 25 89 0
	leaq	-80(%rbp), %rax
	movl	$0, %esi
	movq	%rax, %rdi
	call	_ZN3glm6detail7tmat4x4IfLNS_9precisionE0EEixEi
	movl	$0, %esi
	movq	%rax, %rdi
	call	_ZN3glm6detail5tvec4IfLNS_9precisionE0EEixEi
	movq	%rax, %rbx
	leaq	-176(%rbp), %rax
	movl	$0, %esi
	movq	%rax, %rdi
	call	_ZN3glm6detail5tvec3IfLNS_9precisionE0EEixEi
	movss	(%rax), %xmm5
	movss	%xmm5, -244(%rbp)
	leaq	-192(%rbp), %rax
	movl	$0, %esi
	movq	%rax, %rdi
	call	_ZN3glm6detail5tvec3IfLNS_9precisionE0EEixEi
	movss	(%rax), %xmm0
	mulss	-244(%rbp), %xmm0
	addss	-200(%rbp), %xmm0
	movss	%xmm0, (%rbx)
	.loc 25 90 0
	leaq	-80(%rbp), %rax
	movl	$0, %esi
	movq	%rax, %rdi
	call	_ZN3glm6detail7tmat4x4IfLNS_9precisionE0EEixEi
	movl	$1, %esi
	movq	%rax, %rdi
	call	_ZN3glm6detail5tvec4IfLNS_9precisionE0EEixEi
	movq	%rax, %rbx
	leaq	-176(%rbp), %rax
	movl	$0, %esi
	movq	%rax, %rdi
	call	_ZN3glm6detail5tvec3IfLNS_9precisionE0EEixEi
	movss	(%rax), %xmm6
	movss	%xmm6, -244(%rbp)
	leaq	-192(%rbp), %rax
	movl	$1, %esi
	movq	%rax, %rdi
